(dp1
S'output'
p2
S"<type 'exceptions.RuntimeError'> File /Users/cjzhou/Desktop/web2py/applications/for_sale_listing/databases/c8b669d15150d7109e5f7ab36744a5b7_item.table appears corrupted"
p3
sS'layer'
p4
S'/Users/cjzhou/Desktop/web2py/applications/for_sale_listing/models/db.py'
p5
sS'code'
p6
S'from gluon.tools import Auth\n\n\n\ndb = DAL("sqlite://storage.sqlite")\n\nauth = Auth(db)\nauth.define_tables()\n\ndb.define_table(\'item\',\n                Field(\'title\'),\n                Field(\'valid\', \'boolean\', default=False),\n                Field(\'file\', \'upload\'),\n                Field(\'seller\'),\n                Field(\'email\'),\n                Field(\'phone\'),\n                Field(\'category\'),\n                Field(\'item_description\', \'text\'),\n                Field(\'price\'),\n                format=\'%(title)s\')\n\ndb.item.title.requires = IS_NOT_EMPTY()\n\ndb.item.seller.requires = IS_NOT_EMPTY()\n\ndb.item.phone.requires = IS_NOT_EMPTY()\n\ndb.item.email.requires = IS_EMAIL()\n\ndb.item.category.requires = IS_IN_SET([\'Car\', \'Bike\', \'Clothes\'], zero=T(\'choose category\'))\n\ndb.item.item_description.requires = IS_NOT_EMPTY()\n\ndb.item.price.requires = IS_NOT_EMPTY()\n\ndb.item.price.requires = IS_FLOAT_IN_RANGE(0, 100000.0, error_message=\'The price should be in the range 0..100000\')\n\ndb.item.valid.requires = IS_NOT_EMPTY()\n\n\n\n\n\n# # -*- coding: utf-8 -*-\n#\n# # -------------------------------------------------------------------------\n# # This scaffolding model makes your app work on Google App Engine too\n# # File is released under public domain and you can use without limitations\n# # -------------------------------------------------------------------------\n#\n# if request.global_settings.web2py_version < "2.14.1":\n#     raise HTTP(500, "Requires web2py 2.13.3 or newer")\n#\n# # -------------------------------------------------------------------------\n# # if SSL/HTTPS is properly configured and you want all HTTP requests to\n# # be redirected to HTTPS, uncomment the line below:\n# # -------------------------------------------------------------------------\n# # request.requires_https()\n#\n# # -------------------------------------------------------------------------\n# # app configuration made easy. Look inside private/appconfig.ini\n# # -------------------------------------------------------------------------\n# from gluon.contrib.appconfig import AppConfig\n#\n# # -------------------------------------------------------------------------\n# # once in production, remove reload=True to gain full speed\n# # -------------------------------------------------------------------------\n# myconf = AppConfig(reload=True)\n#\n# if not request.env.web2py_runtime_gae:\n#     # ---------------------------------------------------------------------\n#     # if NOT running on Google App Engine use SQLite or other DB\n#     # ---------------------------------------------------------------------\n#     db = DAL(myconf.get(\'db.uri\'),\n#              pool_size=myconf.get(\'db.pool_size\'),\n#              migrate_enabled=myconf.get(\'db.migrate\'),\n#              check_reserved=[\'all\'])\n# else:\n#     # ---------------------------------------------------------------------\n#     # connect to Google BigTable (optional \'google:datastore://namespace\')\n#     # ---------------------------------------------------------------------\n#     db = DAL(\'google:datastore+ndb\')\n#     # ---------------------------------------------------------------------\n#     # store sessions and tickets there\n#     # ---------------------------------------------------------------------\n#     session.connect(request, response, db=db)\n#     # ---------------------------------------------------------------------\n#     # or store session in Memcache, Redis, etc.\n#     # from gluon.contrib.memdb import MEMDB\n#     # from google.appengine.api.memcache import Client\n#     # session.connect(request, response, db = MEMDB(Client()))\n#     # ---------------------------------------------------------------------\n#\n# # -------------------------------------------------------------------------\n# # by default give a view/generic.extension to all actions from localhost\n# # none otherwise. a pattern can be \'controller/function.extension\'\n# # -------------------------------------------------------------------------\n# response.generic_patterns = [\'*\'] if request.is_local else []\n# # -------------------------------------------------------------------------\n# # choose a style for forms\n# # -------------------------------------------------------------------------\n# response.formstyle = myconf.get(\'forms.formstyle\')  # or \'bootstrap3_stacked\' or \'bootstrap2\' or other\n# response.form_label_separator = myconf.get(\'forms.separator\') or \'\'\n#\n# # -------------------------------------------------------------------------\n# # (optional) optimize handling of static files\n# # -------------------------------------------------------------------------\n# # response.optimize_css = \'concat,minify,inline\'\n# # response.optimize_js = \'concat,minify,inline\'\n#\n# # -------------------------------------------------------------------------\n# # (optional) static assets folder versioning\n# # -------------------------------------------------------------------------\n# # response.static_version = \'0.0.0\'\n#\n# # -------------------------------------------------------------------------\n# # Here is sample code if you need for\n# # - email capabilities\n# # - authentication (registration, login, logout, ... )\n# # - authorization (role based authorization)\n# # - services (xml, csv, json, xmlrpc, jsonrpc, amf, rss)\n# # - old style crud actions\n# # (more options discussed in gluon/tools.py)\n# # -------------------------------------------------------------------------\n#\n# from gluon.tools import Auth, Service, PluginManager\n#\n# # host names must be a list of allowed host names (glob syntax allowed)\n# auth = Auth(db, host_names=myconf.get(\'host.names\'))\n# service = Service()\n# plugins = PluginManager()\n#\n# # -------------------------------------------------------------------------\n# # create all tables needed by auth if not custom tables\n# # -------------------------------------------------------------------------\n# auth.define_tables(username=False, signature=False)\n#\n# # -------------------------------------------------------------------------\n# # configure email\n# # -------------------------------------------------------------------------\n# mail = auth.settings.mailer\n# mail.settings.server = \'logging\' if request.is_local else myconf.get(\'smtp.server\')\n# mail.settings.sender = myconf.get(\'smtp.sender\')\n# mail.settings.login = myconf.get(\'smtp.login\')\n# mail.settings.tls = myconf.get(\'smtp.tls\') or False\n# mail.settings.ssl = myconf.get(\'smtp.ssl\') or False\n#\n# # -------------------------------------------------------------------------\n# # configure auth policy\n# # -------------------------------------------------------------------------\n# auth.settings.registration_requires_verification = False\n# auth.settings.registration_requires_approval = False\n# auth.settings.reset_password_requires_verification = True\n#\n# # -------------------------------------------------------------------------\n# # Define your tables below (or better in another model file) for example\n# #\n# # >>> db.define_table(\'mytable\', Field(\'myfield\', \'string\'))\n# #\n# # Fields can be \'string\',\'text\',\'password\',\'integer\',\'double\',\'boolean\'\n# #       \'date\',\'time\',\'datetime\',\'blob\',\'upload\', \'reference TABLENAME\'\n# # There is an implicit \'id integer autoincrement\' field\n# # Consult manual for more options, validators, etc.\n# #\n# # More API examples for controllers:\n# #\n# # >>> db.mytable.insert(myfield=\'value\')\n# # >>> rows = db(db.mytable.myfield == \'value\').select(db.mytable.ALL)\n# # >>> for row in rows: print row.id, row.myfield\n# # -------------------------------------------------------------------------\n#\n# # -------------------------------------------------------------------------\n# # after defining tables, uncomment below to enable auditing\n# # -------------------------------------------------------------------------\n# # auth.enable_record_versioning(db)\n'
p7
sS'snapshot'
p8
(dp9
S'exception'
p10
(dp11
S'__hash__'
p12
S"<method-wrapper '__hash__' of exceptions.RuntimeError object>"
p13
sS'__setattr__'
p14
S"<method-wrapper '__setattr__' of exceptions.RuntimeError object>"
p15
sS'__reduce_ex__'
p16
S'<built-in method __reduce_ex__ of exceptions.RuntimeError object>'
p17
sS'__getslice__'
p18
S"<method-wrapper '__getslice__' of exceptions.RuntimeError object>"
p19
sS'__getitem__'
p20
S"<method-wrapper '__getitem__' of exceptions.RuntimeError object>"
p21
sS'__setstate__'
p22
S'<built-in method __setstate__ of exceptions.RuntimeError object>'
p23
sS'args'
p24
S"('File /Users/cjzhou/Desktop/web2py/applications/f...d7109e5f7ab36744a5b7_item.table appears corrupted',)"
p25
sS'__reduce__'
p26
S'<built-in method __reduce__ of exceptions.RuntimeError object>'
p27
sS'__str__'
p28
S"<method-wrapper '__str__' of exceptions.RuntimeError object>"
p29
sS'__format__'
p30
S'<built-in method __format__ of exceptions.RuntimeError object>'
p31
sS'__getattribute__'
p32
S"<method-wrapper '__getattribute__' of exceptions.RuntimeError object>"
p33
sS'__class__'
p34
S"<type 'exceptions.RuntimeError'>"
p35
sS'__unicode__'
p36
S'<built-in method __unicode__ of exceptions.RuntimeError object>'
p37
sS'__delattr__'
p38
S"<method-wrapper '__delattr__' of exceptions.RuntimeError object>"
p39
sS'__subclasshook__'
p40
S'<built-in method __subclasshook__ of type object>'
p41
sS'__repr__'
p42
S"<method-wrapper '__repr__' of exceptions.RuntimeError object>"
p43
sS'__dict__'
p44
S'{}'
p45
sS'__sizeof__'
p46
S'<built-in method __sizeof__ of exceptions.RuntimeError object>'
p47
sS'__doc__'
p48
S"'Unspecified run-time error.'"
p49
sS'__init__'
p50
S"<method-wrapper '__init__' of exceptions.RuntimeError object>"
p51
sS'__new__'
p52
S'<built-in method __new__ of type object>'
p53
ssS'evalue'
p54
S'File /Users/cjzhou/Desktop/web2py/applications/for_sale_listing/databases/c8b669d15150d7109e5f7ab36744a5b7_item.table appears corrupted'
p55
sS'request'
p56
cgluon.html
XML_unpickle
p57
(S's\xcc[\x00\x00<div><table><tr><td style="font-weight:bold;vertical-align:top;">ajax</td><td style="vertical-align:top;">:</td><td><div>False</div></td></tr><tr><td style="font-weight:bold;vertical-align:top;">application</td><td style="vertical-align:top;">:</td><td><div>for_sale_listing</div></td></tr><tr><td style="font-weight:bold;vertical-align:top;">args</td><td style="vertical-align:top;">:</td><td><div><table></table></div></td></tr><tr><td style="font-weight:bold;vertical-align:top;">cid</td><td style="vertical-align:top;">:</td><td><div>None</div></td></tr><tr><td style="font-weight:bold;vertical-align:top;">client</td><td style="vertical-align:top;">:</td><td><div>127.0.0.1</div></td></tr><tr><td style="font-weight:bold;vertical-align:top;">controller</td><td style="vertical-align:top;">:</td><td><div>appadmin</div></td></tr><tr><td style="font-weight:bold;vertical-align:top;">cookies</td><td style="vertical-align:top;">:</td><td><div><table><tr><td style="font-weight:bold;vertical-align:top;">session_id_admin</td><td style="vertical-align:top;">:</td><td><div>127.0.0.1-e132e258-32e3-4069-9f28-43e7499b1db9<table><tr><td style="font-weight:bold;vertical-align:top;">comment</td><td style="vertical-align:top;">:</td><td><div></div></td></tr><tr><td style="font-weight:bold;vertical-align:top;">domain</td><td style="vertical-align:top;">:</td><td><div></div></td></tr><tr><td style="font-weight:bold;vertical-align:top;">expires</td><td style="vertical-align:top;">:</td><td><div></div></td></tr><tr><td style="font-weight:bold;vertical-align:top;">httponly</td><td style="vertical-align:top;">:</td><td><div></div></td></tr><tr><td style="font-weight:bold;vertical-align:top;">max-age</td><td style="vertical-align:top;">:</td><td><div></div></td></tr><tr><td style="font-weight:bold;vertical-align:top;">path</td><td style="vertical-align:top;">:</td><td><div></div></td></tr><tr><td style="font-weight:bold;vertical-align:top;">secure</td><td style="vertical-align:top;">:</td><td><div></div></td></tr><tr><td style="font-weight:bold;vertical-align:top;">version</td><td style="vertical-align:top;">:</td><td><div></div></td></tr></table></div></td></tr><tr><td style="font-weight:bold;vertical-align:top;">session_id_for_sale_listing</td><td style="vertical-align:top;">:</td><td><div>127.0.0.1-1c2bc77c-93b1-46be-b816-a34f1745edf0<table><tr><td style="font-weight:bold;vertical-align:top;">comment</td><td style="vertical-align:top;">:</td><td><div></div></td></tr><tr><td style="font-weight:bold;vertical-align:top;">domain</td><td style="vertical-align:top;">:</td><td><div></div></td></tr><tr><td style="font-weight:bold;vertical-align:top;">expires</td><td style="vertical-align:top;">:</td><td><div></div></td></tr><tr><td style="font-weight:bold;vertical-align:top;">httponly</td><td style="vertical-align:top;">:</td><td><div></div></td></tr><tr><td style="font-weight:bold;vertical-align:top;">max-age</td><td style="vertical-align:top;">:</td><td><div></div></td></tr><tr><td style="font-weight:bold;vertical-align:top;">path</td><td style="vertical-align:top;">:</td><td><div></div></td></tr><tr><td style="font-weight:bold;vertical-align:top;">secure</td><td style="vertical-align:top;">:</td><td><div></div></td></tr><tr><td style="font-weight:bold;vertical-align:top;">version</td><td style="vertical-align:top;">:</td><td><div></div></td></tr></table></div></td></tr><tr><td style="font-weight:bold;vertical-align:top;">session_id_welcome</td><td style="vertical-align:top;">:</td><td><div>127.0.0.1-0ecc19ba-9102-4059-8c28-c978358f2590<table><tr><td style="font-weight:bold;vertical-align:top;">comment</td><td style="vertical-align:top;">:</td><td><div></div></td></tr><tr><td style="font-weight:bold;vertical-align:top;">domain</td><td style="vertical-align:top;">:</td><td><div></div></td></tr><tr><td style="font-weight:bold;vertical-align:top;">expires</td><td style="vertical-align:top;">:</td><td><div></div></td></tr><tr><td style="font-weight:bold;vertical-align:top;">httponly</td><td style="vertical-align:top;">:</td><td><div></div></td></tr><tr><td style="font-weight:bold;vertical-align:top;">max-age</td><td style="vertical-align:top;">:</td><td><div></div></td></tr><tr><td style="font-weight:bold;vertical-align:top;">path</td><td style="vertical-align:top;">:</td><td><div></div></td></tr><tr><td style="font-weight:bold;vertical-align:top;">secure</td><td style="vertical-align:top;">:</td><td><div></div></td></tr><tr><td style="font-weight:bold;vertical-align:top;">version</td><td style="vertical-align:top;">:</td><td><div></div></td></tr></table></div></td></tr></table></div></td></tr><tr><td style="font-weight:bold;vertical-align:top;">env</td><td style="vertical-align:top;">:</td><td><div><table><tr><td style="font-weight:bold;vertical-align:top;">HTTP_ACCEPT</td><td style="vertical-align:top;">:</td><td><div>text/html,application/xhtml+xml,application/xml;q=0.9,*/*;q=0.8</div></td></tr><tr><td style="font-weight:bold;vertical-align:top;">HTTP_ACCEPT_ENCODING</td><td style="vertical-align:top;">:</td><td><div>gzip, deflate</div></td></tr><tr><td style="font-weight:bold;vertical-align:top;">HTTP_ACCEPT_LANGUAGE</td><td style="vertical-align:top;">:</td><td><div>en-us</div></td></tr><tr><td style="font-weight:bold;vertical-align:top;">HTTP_CONNECTION</td><td style="vertical-align:top;">:</td><td><div>keep-alive</div></td></tr><tr><td style="font-weight:bold;vertical-align:top;">HTTP_COOKIE</td><td style="vertical-align:top;">:</td><td><div>session_id_admin=127.0.0.1-e132e258-32e3-4069-9f28-43e7499b1db9; session_id_welcome=127.0.0.1-0ecc19ba-9102-4059-8c28-c978358f2590; session_id_for_sale_listing=127.0.0.1-1c2bc77c-93b1-46be-b816-a34f1745edf0</div></td></tr><tr><td style="font-weight:bold;vertical-align:top;">HTTP_DNT</td><td style="vertical-align:top;">:</td><td><div>1</div></td></tr><tr><td style="font-weight:bold;vertical-align:top;">HTTP_HOST</td><td style="vertical-align:top;">:</td><td><div>127.0.0.1:8000</div></td></tr><tr><td style="font-weight:bold;vertical-align:top;">HTTP_UPGRADE_INSECURE_REQUESTS</td><td style="vertical-align:top;">:</td><td><div>1</div></td></tr><tr><td style="font-weight:bold;vertical-align:top;">HTTP_USER_AGENT</td><td style="vertical-align:top;">:</td><td><div>Mozilla/5.0 (Macintosh; Intel Mac OS X 10_12_3) AppleWebKit/602.4.8 (KHTML, like Gecko) Version/10.0.3 Safari/602.4.8</div></td></tr><tr><td style="font-weight:bold;vertical-align:top;">PATH_INFO</td><td style="vertical-align:top;">:</td><td><div>/for_sale_listing/appadmin/</div></td></tr><tr><td style="font-weight:bold;vertical-align:top;">QUERY_STRING</td><td style="vertical-align:top;">:</td><td><div></div></td></tr><tr><td style="font-weight:bold;vertical-align:top;">REMOTE_ADDR</td><td style="vertical-align:top;">:</td><td><div>127.0.0.1</div></td></tr><tr><td style="font-weight:bold;vertical-align:top;">REMOTE_PORT</td><td style="vertical-align:top;">:</td><td><div>51396</div></td></tr><tr><td style="font-weight:bold;vertical-align:top;">REQUEST_METHOD</td><td style="vertical-align:top;">:</td><td><div>GET</div></td></tr><tr><td style="font-weight:bold;vertical-align:top;">SCRIPT_NAME</td><td style="vertical-align:top;">:</td><td><div></div></td></tr><tr><td style="font-weight:bold;vertical-align:top;">SERVER_NAME</td><td style="vertical-align:top;">:</td><td><div>eduroam-169-233-240-147.ucsc.edu</div></td></tr><tr><td style="font-weight:bold;vertical-align:top;">SERVER_PORT</td><td style="vertical-align:top;">:</td><td><div>8000</div></td></tr><tr><td style="font-weight:bold;vertical-align:top;">SERVER_PROTOCOL</td><td style="vertical-align:top;">:</td><td><div>HTTP/1.1</div></td></tr><tr><td style="font-weight:bold;vertical-align:top;">SERVER_SOFTWARE</td><td style="vertical-align:top;">:</td><td><div>Rocket 1.2.6</div></td></tr><tr><td style="font-weight:bold;vertical-align:top;">app_folders</td><td style="vertical-align:top;">:</td><td><div>set([&#x27;/Users/cjzhou/Desktop/web2py/applications/for_sale_listing/&#x27;, &#x27;/Users/cjzhou/Desktop/web2py/applications/admin/&#x27;, &#x27;/Users/cjzhou/Desktop/web2py/applications/welcome/&#x27;])</div></td></tr><tr><td style="font-weight:bold;vertical-align:top;">applications_parent</td><td style="vertical-align:top;">:</td><td><div>/Users/cjzhou/Desktop/web2py</div></td></tr><tr><td style="font-weight:bold;vertical-align:top;">cmd_args</td><td style="vertical-align:top;">:</td><td><div><table></table></div></td></tr><tr><td style="font-weight:bold;vertical-align:top;">cmd_options</td><td style="vertical-align:top;">:</td><td><div>&lt;Values at 0x103f25440: {&#x27;verbose&#x27;: False, &#x27;ip&#x27;: &#x27;127.0.0.1&#x27;, &#x27;debuglevel&#x27;: 30, &#x27;with_scheduler&#x27;: False, &#x27;shutdown_timeout&#x27;: 5, &#x27;taskbar&#x27;: False, &#x27;with_coverage&#x27;: False, &#x27;pid_filename&#x27;: &#x27;httpserver.pid&#x27;, &#x27;maxthreads&#x27;: None, &#x27;softcron&#x27;: False, &#x27;server_name&#x27;: &#x27;eduroam-169-233-240-147.ucsc.edu&#x27;, &#x27;bpython&#x27;: False, &#x27;nogui&#x27;: False, &#x27;port&#x27;: 8000, &#x27;print_errors&#x27;: False, &#x27;extcron&#x27;: False, &#x27;runcron&#x27;: False, &#x27;run_system_tests&#x27;: False, &#x27;test&#x27;: None, &#x27;folder&#x27;: &#x27;/Users/cjzhou/Desktop/web2py&#x27;, &#x27;config&#x27;: &#x27;&#x27;, &#x27;minthreads&#x27;: None, &#x27;shell&#x27;: None, &#x27;run&#x27;: &#x27;&#x27;, &#x27;log_filename&#x27;: &#x27;httpserver.log&#x27;, &#x27;profiler_dir&#x27;: None, &#x27;args&#x27;: [&#x27;&#x27;], &#x27;socket_timeout&#x27;: 5, &#x27;ssl_ca_certificate&#x27;: None, &#x27;scheduler&#x27;: None, &#x27;interfaces&#x27;: None, &#x27;ssl_private_key&#x27;: &#x27;&#x27;, &#x27;gae&#x27;: None, &#x27;password&#x27;: &#x27;******&#x27;, &#x27;request_queue_size&#x27;: 5, &#x27;ssl_certificate&#x27;: &#x27;&#x27;, &#x27;cronjob&#x27;: False, &#x27;numthreads&#x27;: None, &#x27;quiet&#x27;: False, &#x27;import_models&#x27;: False, &#x27;timeout&#x27;: 10, &#x27;plain&#x27;: False, &#x27;nobanner&#x27;: False}&gt;</div></td></tr><tr><td style="font-weight:bold;vertical-align:top;">db_sessions</td><td style="vertical-align:top;">:</td><td><div>set([])</div></td></tr><tr><td style="font-weight:bold;vertical-align:top;">debugging</td><td style="vertical-align:top;">:</td><td><div>False</div></td></tr><tr><td style="font-weight:bold;vertical-align:top;">gluon_parent</td><td style="vertical-align:top;">:</td><td><div>/Users/cjzhou/Desktop/web2py</div></td></tr><tr><td style="font-weight:bold;vertical-align:top;">http_accept</td><td style="vertical-align:top;">:</td><td><div>text/html,application/xhtml+xml,application/xml;q=0.9,*/*;q=0.8</div></td></tr><tr><td style="font-weight:bold;vertical-align:top;">http_accept_encoding</td><td style="vertical-align:top;">:</td><td><div>gzip, deflate</div></td></tr><tr><td style="font-weight:bold;vertical-align:top;">http_accept_language</td><td style="vertical-align:top;">:</td><td><div>en-us</div></td></tr><tr><td style="font-weight:bold;vertical-align:top;">http_connection</td><td style="vertical-align:top;">:</td><td><div>keep-alive</div></td></tr><tr><td style="font-weight:bold;vertical-align:top;">http_cookie</td><td style="vertical-align:top;">:</td><td><div>session_id_admin=127.0.0.1-e132e258-32e3-4069-9f28-43e7499b1db9; session_id_welcome=127.0.0.1-0ecc19ba-9102-4059-8c28-c978358f2590; session_id_for_sale_listing=127.0.0.1-1c2bc77c-93b1-46be-b816-a34f1745edf0</div></td></tr><tr><td style="font-weight:bold;vertical-align:top;">http_dnt</td><td style="vertical-align:top;">:</td><td><div>1</div></td></tr><tr><td style="font-weight:bold;vertical-align:top;">http_host</td><td style="vertical-align:top;">:</td><td><div>127.0.0.1:8000</div></td></tr><tr><td style="font-weight:bold;vertical-align:top;">http_upgrade_insecure_requests</td><td style="vertical-align:top;">:</td><td><div>1</div></td></tr><tr><td style="font-weight:bold;vertical-align:top;">http_user_agent</td><td style="vertical-align:top;">:</td><td><div>Mozilla/5.0 (Macintosh; Intel Mac OS X 10_12_3) AppleWebKit/602.4.8 (KHTML, like Gecko) Version/10.0.3 Safari/602.4.8</div></td></tr><tr><td style="font-weight:bold;vertical-align:top;">is_jython</td><td style="vertical-align:top;">:</td><td><div>False</div></td></tr><tr><td style="font-weight:bold;vertical-align:top;">is_pypy</td><td style="vertical-align:top;">:</td><td><div>False</div></td></tr><tr><td style="font-weight:bold;vertical-align:top;">is_source</td><td style="vertical-align:top;">:</td><td><div>True</div></td></tr><tr><td style="font-weight:bold;vertical-align:top;">local_hosts</td><td style="vertical-align:top;">:</td><td><div><table><tr><td><div>::1</div></td></tr><tr><td><div>169.233.240.147</div></td></tr><tr><td><div>::ffff:127.0.0.1</div></td></tr><tr><td><div>127.0.0.1</div></td></tr><tr><td><div>eduroam-169-233-240-147.ucsc.edu</div></td></tr></table></div></td></tr><tr><td style="font-weight:bold;vertical-align:top;">path_info</td><td style="vertical-align:top;">:</td><td><div>/for_sale_listing/appadmin/</div></td></tr><tr><td style="font-weight:bold;vertical-align:top;">query_string</td><td style="vertical-align:top;">:</td><td><div></div></td></tr><tr><td style="font-weight:bold;vertical-align:top;">remote_addr</td><td style="vertical-align:top;">:</td><td><div>127.0.0.1</div></td></tr><tr><td style="font-weight:bold;vertical-align:top;">remote_port</td><td style="vertical-align:top;">:</td><td><div>51396</div></td></tr><tr><td style="font-weight:bold;vertical-align:top;">request_method</td><td style="vertical-align:top;">:</td><td><div>GET</div></td></tr><tr><td style="font-weight:bold;vertical-align:top;">request_uri</td><td style="vertical-align:top;">:</td><td><div>/for_sale_listing/appadmin/</div></td></tr><tr><td style="font-weight:bold;vertical-align:top;">script_name</td><td style="vertical-align:top;">:</td><td><div></div></td></tr><tr><td style="font-weight:bold;vertical-align:top;">server_name</td><td style="vertical-align:top;">:</td><td><div>eduroam-169-233-240-147.ucsc.edu</div></td></tr><tr><td style="font-weight:bold;vertical-align:top;">server_port</td><td style="vertical-align:top;">:</td><td><div>8000</div></td></tr><tr><td style="font-weight:bold;vertical-align:top;">server_protocol</td><td style="vertical-align:top;">:</td><td><div>HTTP/1.1</div></td></tr><tr><td style="font-weight:bold;vertical-align:top;">server_software</td><td style="vertical-align:top;">:</td><td><div>Rocket 1.2.6</div></td></tr><tr><td style="font-weight:bold;vertical-align:top;">web2py_path</td><td style="vertical-align:top;">:</td><td><div>/Users/cjzhou/Desktop/web2py</div></td></tr><tr><td style="font-weight:bold;vertical-align:top;">web2py_version</td><td style="vertical-align:top;">:</td><td><div>2.14.6-stable+timestamp.2016.05.10.00.21.47</div></td></tr><tr><td style="font-weight:bold;vertical-align:top;">wsgi.errors</td><td style="vertical-align:top;">:</td><td><div>&lt;open file &#x27;&lt;stderr&gt;&#x27;, mode &#x27;w&#x27; at 0x102c911e0&gt;</div></td></tr><tr><td style="font-weight:bold;vertical-align:top;">wsgi.file_wrapper</td><td style="vertical-align:top;">:</td><td><div>&lt;class wsgiref.util.FileWrapper at 0x103ec39a8&gt;</div></td></tr><tr><td style="font-weight:bold;vertical-align:top;">wsgi.input</td><td style="vertical-align:top;">:</td><td><div>&lt;socket._fileobject object at 0x10c9b74d0&gt;</div></td></tr><tr><td style="font-weight:bold;vertical-align:top;">wsgi.multiprocess</td><td style="vertical-align:top;">:</td><td><div>False</div></td></tr><tr><td style="font-weight:bold;vertical-align:top;">wsgi.multithread</td><td style="vertical-align:top;">:</td><td><div>True</div></td></tr><tr><td style="font-weight:bold;vertical-align:top;">wsgi.run_once</td><td style="vertical-align:top;">:</td><td><div>False</div></td></tr><tr><td style="font-weight:bold;vertical-align:top;">wsgi.url_scheme</td><td style="vertical-align:top;">:</td><td><div>http</div></td></tr><tr><td style="font-weight:bold;vertical-align:top;">wsgi.version</td><td style="vertical-align:top;">:</td><td><div><table><tr><td><div>1</div></td></tr><tr><td><div>0</div></td></tr></table></div></td></tr><tr><td style="font-weight:bold;vertical-align:top;">wsgi_errors</td><td style="vertical-align:top;">:</td><td><div>&lt;open file &#x27;&lt;stderr&gt;&#x27;, mode &#x27;w&#x27; at 0x102c911e0&gt;</div></td></tr><tr><td style="font-weight:bold;vertical-align:top;">wsgi_file_wrapper</td><td style="vertical-align:top;">:</td><td><div>&lt;class wsgiref.util.FileWrapper at 0x103ec39a8&gt;</div></td></tr><tr><td style="font-weight:bold;vertical-align:top;">wsgi_input</td><td style="vertical-align:top;">:</td><td><div>&lt;socket._fileobject object at 0x10c9b74d0&gt;</div></td></tr><tr><td style="font-weight:bold;vertical-align:top;">wsgi_multiprocess</td><td style="vertical-align:top;">:</td><td><div>False</div></td></tr><tr><td style="font-weight:bold;vertical-align:top;">wsgi_multithread</td><td style="vertical-align:top;">:</td><td><div>True</div></td></tr><tr><td style="font-weight:bold;vertical-align:top;">wsgi_run_once</td><td style="vertical-align:top;">:</td><td><div>False</div></td></tr><tr><td style="font-weight:bold;vertical-align:top;">wsgi_url_scheme</td><td style="vertical-align:top;">:</td><td><div>http</div></td></tr><tr><td style="font-weight:bold;vertical-align:top;">wsgi_version</td><td style="vertical-align:top;">:</td><td><div><table><tr><td><div>1</div></td></tr><tr><td><div>0</div></td></tr></table></div></td></tr></table></div></td></tr><tr><td style="font-weight:bold;vertical-align:top;">extension</td><td style="vertical-align:top;">:</td><td><div>html</div></td></tr><tr><td style="font-weight:bold;vertical-align:top;">folder</td><td style="vertical-align:top;">:</td><td><div>/Users/cjzhou/Desktop/web2py/applications/for_sale_listing/</div></td></tr><tr><td style="font-weight:bold;vertical-align:top;">function</td><td style="vertical-align:top;">:</td><td><div>index</div></td></tr><tr><td style="font-weight:bold;vertical-align:top;">global_settings</td><td style="vertical-align:top;">:</td><td><div><table><tr><td style="font-weight:bold;vertical-align:top;">app_folders</td><td style="vertical-align:top;">:</td><td><div>set([&#x27;/Users/cjzhou/Desktop/web2py/applications/for_sale_listing/&#x27;, &#x27;/Users/cjzhou/Desktop/web2py/applications/admin/&#x27;, &#x27;/Users/cjzhou/Desktop/web2py/applications/welcome/&#x27;])</div></td></tr><tr><td style="font-weight:bold;vertical-align:top;">applications_parent</td><td style="vertical-align:top;">:</td><td><div>/Users/cjzhou/Desktop/web2py</div></td></tr><tr><td style="font-weight:bold;vertical-align:top;">cmd_args</td><td style="vertical-align:top;">:</td><td><div><table></table></div></td></tr><tr><td style="font-weight:bold;vertical-align:top;">cmd_options</td><td style="vertical-align:top;">:</td><td><div>&lt;Values at 0x103f25440: {&#x27;verbose&#x27;: False, &#x27;ip&#x27;: &#x27;127.0.0.1&#x27;, &#x27;debuglevel&#x27;: 30, &#x27;with_scheduler&#x27;: False, &#x27;shutdown_timeout&#x27;: 5, &#x27;taskbar&#x27;: False, &#x27;with_coverage&#x27;: False, &#x27;pid_filename&#x27;: &#x27;httpserver.pid&#x27;, &#x27;maxthreads&#x27;: None, &#x27;softcron&#x27;: False, &#x27;server_name&#x27;: &#x27;eduroam-169-233-240-147.ucsc.edu&#x27;, &#x27;bpython&#x27;: False, &#x27;nogui&#x27;: False, &#x27;port&#x27;: 8000, &#x27;print_errors&#x27;: False, &#x27;extcron&#x27;: False, &#x27;runcron&#x27;: False, &#x27;run_system_tests&#x27;: False, &#x27;test&#x27;: None, &#x27;folder&#x27;: &#x27;/Users/cjzhou/Desktop/web2py&#x27;, &#x27;config&#x27;: &#x27;&#x27;, &#x27;minthreads&#x27;: None, &#x27;shell&#x27;: None, &#x27;run&#x27;: &#x27;&#x27;, &#x27;log_filename&#x27;: &#x27;httpserver.log&#x27;, &#x27;profiler_dir&#x27;: None, &#x27;args&#x27;: [&#x27;&#x27;], &#x27;socket_timeout&#x27;: 5, &#x27;ssl_ca_certificate&#x27;: None, &#x27;scheduler&#x27;: None, &#x27;interfaces&#x27;: None, &#x27;ssl_private_key&#x27;: &#x27;&#x27;, &#x27;gae&#x27;: None, &#x27;password&#x27;: &#x27;******&#x27;, &#x27;request_queue_size&#x27;: 5, &#x27;ssl_certificate&#x27;: &#x27;&#x27;, &#x27;cronjob&#x27;: False, &#x27;numthreads&#x27;: None, &#x27;quiet&#x27;: False, &#x27;import_models&#x27;: False, &#x27;timeout&#x27;: 10, &#x27;plain&#x27;: False, &#x27;nobanner&#x27;: False}&gt;</div></td></tr><tr><td style="font-weight:bold;vertical-align:top;">db_sessions</td><td style="vertical-align:top;">:</td><td><div>set([])</div></td></tr><tr><td style="font-weight:bold;vertical-align:top;">debugging</td><td style="vertical-align:top;">:</td><td><div>False</div></td></tr><tr><td style="font-weight:bold;vertical-align:top;">gluon_parent</td><td style="vertical-align:top;">:</td><td><div>/Users/cjzhou/Desktop/web2py</div></td></tr><tr><td style="font-weight:bold;vertical-align:top;">is_jython</td><td style="vertical-align:top;">:</td><td><div>False</div></td></tr><tr><td style="font-weight:bold;vertical-align:top;">is_pypy</td><td style="vertical-align:top;">:</td><td><div>False</div></td></tr><tr><td style="font-weight:bold;vertical-align:top;">is_source</td><td style="vertical-align:top;">:</td><td><div>True</div></td></tr><tr><td style="font-weight:bold;vertical-align:top;">local_hosts</td><td style="vertical-align:top;">:</td><td><div><table><tr><td><div>::1</div></td></tr><tr><td><div>169.233.240.147</div></td></tr><tr><td><div>::ffff:127.0.0.1</div></td></tr><tr><td><div>127.0.0.1</div></td></tr><tr><td><div>eduroam-169-233-240-147.ucsc.edu</div></td></tr></table></div></td></tr><tr><td style="font-weight:bold;vertical-align:top;">web2py_version</td><td style="vertical-align:top;">:</td><td><div>2.14.6-stable+timestamp.2016.05.10.00.21.47</div></td></tr></table></div></td></tr><tr><td style="font-weight:bold;vertical-align:top;">is_https</td><td style="vertical-align:top;">:</td><td><div>False</div></td></tr><tr><td style="font-weight:bold;vertical-align:top;">is_local</td><td style="vertical-align:top;">:</td><td><div>True</div></td></tr><tr><td style="font-weight:bold;vertical-align:top;">is_restful</td><td style="vertical-align:top;">:</td><td><div>False</div></td></tr><tr><td style="font-weight:bold;vertical-align:top;">is_scheduler</td><td style="vertical-align:top;">:</td><td><div>False</div></td></tr><tr><td style="font-weight:bold;vertical-align:top;">is_shell</td><td style="vertical-align:top;">:</td><td><div>False</div></td></tr><tr><td style="font-weight:bold;vertical-align:top;">now</td><td style="vertical-align:top;">:</td><td><div>datetime.datetime(2017, 2, 3, 14, 0, 5, 366946)</div></td></tr><tr><td style="font-weight:bold;vertical-align:top;">raw_args</td><td style="vertical-align:top;">:</td><td><div></div></td></tr><tr><td style="font-weight:bold;vertical-align:top;">raw_extension</td><td style="vertical-align:top;">:</td><td><div>None</div></td></tr><tr><td style="font-weight:bold;vertical-align:top;">url</td><td style="vertical-align:top;">:</td><td><div>/for_sale_listing/appadmin/</div></td></tr><tr><td style="font-weight:bold;vertical-align:top;">utcnow</td><td style="vertical-align:top;">:</td><td><div>datetime.datetime(2017, 2, 3, 22, 0, 5, 366957)</div></td></tr><tr><td style="font-weight:bold;vertical-align:top;">wsgi</td><td style="vertical-align:top;">:</td><td><div>&lt;gluon.main.LazyWSGI object at 0x10c8a7fd0&gt;</div></td></tr></table></div>'
tRp58
sS'frames'
p59
(lp60
(dp61
S'file'
p62
S'/Users/cjzhou/Desktop/web2py/gluon/restricted.py'
p63
sS'dump'
p64
(dp65
S'environment'
p66
S"{'A': <class 'gluon.html.A'>, 'ANY_OF': <class 'gluon.validators.ANY_OF'>, 'ASSIGNJS': <function ASSIGNJS>, 'Auth': <class 'gluon.tools.Auth'>, 'B': <class 'gluon.html.B'>, 'BEAUTIFY': <class 'gluon.html.BEAUTIFY'>, 'BODY': <class 'gluon.html.BODY'>, 'BR': <class 'gluon.html.BR'>, 'BUTTON': <class 'gluon.html.BUTTON'>, 'CAT': <class 'gluon.html.CAT'>, ...}"
p67
sS'ccode'
p68
S'<code object <module> at 0x10c9b7b30, file "/Use...lications/for_sale_listing/models/db.py", line 1>'
p69
ssS'lnum'
p70
I227
sS'lines'
p71
(dp72
I224
S'            ccode = code'
p73
sI225
S'        else:'
p74
sI226
S'            ccode = compile2(code, layer)'
p75
sI227
S'        exec ccode in environment'
p76
sI228
S'    except HTTP:'
p77
sI229
S'        raise'
p78
sI230
S'    except RestrictedError:'
p79
sI231
S'        # do not encapsulate (obfuscate) the original RestrictedError'
p80
sI222
S'    try:'
p81
sI223
S'        if isinstance(code, types.CodeType):'
p82
ssS'call'
p83
S'(code=\'from gluon.tools import Auth\\n\\n\\n\\ndb = DAL("sqlite...----------\\n# # auth.enable_record_versioning(db)\\n\', environment={\'A\': <class \'gluon.html.A\'>, \'ANY_OF\': <class \'gluon.validators.ANY_OF\'>, \'ASSIGNJS\': <function ASSIGNJS>, \'Auth\': <class \'gluon.tools.Auth\'>, \'B\': <class \'gluon.html.B\'>, \'BEAUTIFY\': <class \'gluon.html.BEAUTIFY\'>, \'BODY\': <class \'gluon.html.BODY\'>, \'BR\': <class \'gluon.html.BR\'>, \'BUTTON\': <class \'gluon.html.BUTTON\'>, \'CAT\': <class \'gluon.html.CAT\'>, ...}, layer=\'/Users/cjzhou/Desktop/web2py/applications/for_sale_listing/models/db.py\')'
p84
sS'func'
p85
S'restricted'
p86
sa(dp87
g62
S'/Users/cjzhou/Desktop/web2py/applications/for_sale_listing/models/db.py'
p88
sg64
(dp89
S'builtinformat'
p90
S'<built-in function format>'
p91
ssg70
I20
sg71
(dp92
I15
S"                Field('email'),"
p93
sI16
S"                Field('phone'),"
p94
sI17
S"                Field('category'),"
p95
sI18
S"                Field('item_description', 'text'),"
p96
sI19
S"                Field('price'),"
p97
sI20
S"                format='%(title)s')"
p98
sI21
S''
sI22
S'db.item.title.requires = IS_NOT_EMPTY()'
p99
sI23
S''
sI24
S'db.item.seller.requires = IS_NOT_EMPTY()'
p100
ssg83
S'()'
p101
sg85
S'<module>'
p102
sa(dp103
g62
S'/Users/cjzhou/Desktop/web2py/gluon/packages/dal/pydal/base.py'
p104
sg64
(dp105
S'fields'
p106
S'(<pydal.objects.Field object>, <pydal.objects.Field object>, <pydal.objects.Field object>, <pydal.objects.Field object>, <pydal.objects.Field object>, <pydal.objects.Field object>, <pydal.objects.Field object>, <pydal.objects.Field object>, <pydal.objects.Field object>)'
p107
sS'self'
p108
S'<DAL uri="sqlite://storage.sqlite">'
p109
sS'args'
p110
S"{'format': '%(title)s'}"
p111
sS'tablename'
p112
S"'item'"
p113
sS'table'
p114
S'undefined'
p115
sS'self.lazy_define_table'
p116
S'<bound method DAL.lazy_define_table of <DAL uri="sqlite://storage.sqlite">>'
p117
ssg70
I834
sg71
(dp118
I832
S'            table = None'
p119
sI833
S'        else:'
p120
sI834
S'            table = self.lazy_define_table(tablename,*fields,**args)'
p121
sI835
S'        if not tablename in self.tables:'
p122
sI836
S'            self.tables.append(tablename)'
p123
sI837
S'        return table'
p124
sI838
S''
sI829
S'                    % (tablename,invalid_args))'
p125
sI830
S'        if self._lazy_tables and tablename not in self._LAZY_TABLES:'
p126
sI831
S'            self._LAZY_TABLES[tablename] = (tablename,fields,args)'
p127
ssg83
S'(self=<DAL uri="sqlite://storage.sqlite">, tablename=\'item\', *fields=(<pydal.objects.Field object>, <pydal.objects.Field object>, <pydal.objects.Field object>, <pydal.objects.Field object>, <pydal.objects.Field object>, <pydal.objects.Field object>, <pydal.objects.Field object>, <pydal.objects.Field object>, <pydal.objects.Field object>), **args={\'format\': \'%(title)s\'})'
p128
sg85
S'define_table'
p129
sa(dp130
g62
S'/Users/cjzhou/Desktop/web2py/gluon/packages/dal/pydal/base.py'
p131
sg64
(dp132
S'polymodel'
p133
S'None'
p134
ssg70
I873
sg71
(dp135
I868
S'            try:'
p136
sI869
S'                GLOBAL_LOCKER.acquire()'
p137
sI870
S'                self._lastsql = self._adapter.create_table('
p138
sI871
S'                    table,migrate=migrate,'
p139
sI872
S'                    fake_migrate=fake_migrate,'
p140
sI873
S'                    polymodel=polymodel)'
p141
sI874
S'            finally:'
p142
sI875
S'                GLOBAL_LOCKER.release()'
p143
sI876
S'        else:'
p144
sI877
S'            table._dbt = None'
p145
ssg83
S'(self=<DAL uri="sqlite://storage.sqlite">, tablename=\'item\', *fields=(<pydal.objects.Field object>, <pydal.objects.Field object>, <pydal.objects.Field object>, <pydal.objects.Field object>, <pydal.objects.Field object>, <pydal.objects.Field object>, <pydal.objects.Field object>, <pydal.objects.Field object>, <pydal.objects.Field object>), **args={\'format\': \'%(title)s\'})'
p146
sg85
S'lazy_define_table'
p147
sa(dp148
g62
S'/Users/cjzhou/Desktop/web2py/gluon/packages/dal/pydal/adapters/base.py'
p149
sg64
(dp150
S'table'
p151
S'<Table item (id, title, valid, file, seller, email, phone, category, item_description, price)>'
p152
sS'table._dbt'
p153
S"'/Users/cjzhou/Desktop/web2py/applications/for_sa...bases/c8b669d15150d7109e5f7ab36744a5b7_item.table'"
p154
sS'builtinRuntimeError'
p155
S"<type 'exceptions.RuntimeError'>"
p156
ssg70
I503
sg71
(dp157
I498
S"            tfile = self.file_open(table._dbt, 'rb')"
p158
sI499
S'            try:'
p159
sI500
S'                sql_fields_old = pickle.load(tfile)'
p160
sI501
S'            except EOFError:'
p161
sI502
S'                self.file_close(tfile)'
p162
sI503
S"                raise RuntimeError('File %s appears corrupted' % table._dbt)"
p163
sI504
S'            self.file_close(tfile)'
p164
sI505
S'            if sql_fields != sql_fields_old:'
p165
sI506
S'                self.migrate_table('
p166
sI507
S'                    table,'
p167
ssg83
S'(self=<pydal.adapters.sqlite.SQLiteAdapter object>, table=<Table item (id, title, valid, file, seller, email, phone, category, item_description, price)>, migrate=True, fake_migrate=False, polymodel=None)'
p168
sg85
S'create_table'
p169
sasS'pyver'
p170
S'Python 2.7.12: /usr/local/opt/python/bin/python2.7 (prefix: /usr/local/Cellar/python/2.7.12_2/Frameworks/Python.framework/Versions/2.7)'
p171
sS'session'
p172
g57
(S'so\t\x00\x00<div><table><tr><td style="font-weight:bold;vertical-align:top;">auth</td><td style="vertical-align:top;">:</td><td><div><table><tr><td style="font-weight:bold;vertical-align:top;">expiration</td><td style="vertical-align:top;">:</td><td><div>3600</div></td></tr><tr><td style="font-weight:bold;vertical-align:top;">hmac_key</td><td style="vertical-align:top;">:</td><td><div>b3572d67-50ae-4c90-8bb1-6bca0b0ad828</div></td></tr><tr><td style="font-weight:bold;vertical-align:top;">last_visit</td><td style="vertical-align:top;">:</td><td><div>datetime.datetime(2017, 2, 3, 14, 0, 5, 366946)</div></td></tr><tr><td style="font-weight:bold;vertical-align:top;">user</td><td style="vertical-align:top;">:</td><td><div><table><tr><td style="font-weight:bold;vertical-align:top;">email</td><td style="vertical-align:top;">:</td><td><div>tom@gmail.com</div></td></tr><tr><td style="font-weight:bold;vertical-align:top;">first_name</td><td style="vertical-align:top;">:</td><td><div>Tom</div></td></tr><tr><td style="font-weight:bold;vertical-align:top;">id</td><td style="vertical-align:top;">:</td><td><div>1L</div></td></tr><tr><td style="font-weight:bold;vertical-align:top;">last_name</td><td style="vertical-align:top;">:</td><td><div>Tom</div></td></tr><tr><td style="font-weight:bold;vertical-align:top;">registration_id</td><td style="vertical-align:top;">:</td><td><div></div></td></tr><tr><td style="font-weight:bold;vertical-align:top;">registration_key</td><td style="vertical-align:top;">:</td><td><div></div></td></tr><tr><td style="font-weight:bold;vertical-align:top;">reset_password_key</td><td style="vertical-align:top;">:</td><td><div></div></td></tr></table></div></td></tr><tr><td style="font-weight:bold;vertical-align:top;">user_groups</td><td style="vertical-align:top;">:</td><td><div><table><tr><td style="font-weight:bold;vertical-align:top;">1</td><td style="vertical-align:top;">:</td><td><div>user_1</div></td></tr></table></div></td></tr></table></div></td></tr><tr><td style="font-weight:bold;vertical-align:top;">flash</td><td style="vertical-align:top;">:</td><td><div>None</div></td></tr><tr><td style="font-weight:bold;vertical-align:top;">last_orderby</td><td style="vertical-align:top;">:</td><td><div>None</div></td></tr><tr><td style="font-weight:bold;vertical-align:top;">last_query</td><td style="vertical-align:top;">:</td><td><div>db.item.id&gt;0</div></td></tr></table></div>'
tRp173
sS'etype'
p174
S"<type 'exceptions.RuntimeError'>"
p175
sS'date'
p176
S'Fri Feb  3 14:00:05 2017'
p177
sS'response'
p178
g57
(S's\xa4\x17\x00\x00<div><table><tr><td style="font-weight:bold;vertical-align:top;">body</td><td style="vertical-align:top;">:</td><td><div>&lt;cStringIO.StringO object at 0x10c99f8b8&gt;</div></td></tr><tr><td style="font-weight:bold;vertical-align:top;">cookies</td><td style="vertical-align:top;">:</td><td><div><table><tr><td style="font-weight:bold;vertical-align:top;">session_id_for_sale_listing</td><td style="vertical-align:top;">:</td><td><div>127.0.0.1-1c2bc77c-93b1-46be-b816-a34f1745edf0<table><tr><td style="font-weight:bold;vertical-align:top;">comment</td><td style="vertical-align:top;">:</td><td><div></div></td></tr><tr><td style="font-weight:bold;vertical-align:top;">domain</td><td style="vertical-align:top;">:</td><td><div></div></td></tr><tr><td style="font-weight:bold;vertical-align:top;">expires</td><td style="vertical-align:top;">:</td><td><div></div></td></tr><tr><td style="font-weight:bold;vertical-align:top;">httponly</td><td style="vertical-align:top;">:</td><td><div></div></td></tr><tr><td style="font-weight:bold;vertical-align:top;">max-age</td><td style="vertical-align:top;">:</td><td><div></div></td></tr><tr><td style="font-weight:bold;vertical-align:top;">path</td><td style="vertical-align:top;">:</td><td><div>/</div></td></tr><tr><td style="font-weight:bold;vertical-align:top;">secure</td><td style="vertical-align:top;">:</td><td><div></div></td></tr><tr><td style="font-weight:bold;vertical-align:top;">version</td><td style="vertical-align:top;">:</td><td><div></div></td></tr></table></div></td></tr></table></div></td></tr><tr><td style="font-weight:bold;vertical-align:top;">delimiters</td><td style="vertical-align:top;">:</td><td><div><table><tr><td><div>{{</div></td></tr><tr><td><div>}}</div></td></tr></table></div></td></tr><tr><td style="font-weight:bold;vertical-align:top;">files</td><td style="vertical-align:top;">:</td><td><div><table></table></div></td></tr><tr><td style="font-weight:bold;vertical-align:top;">flash</td><td style="vertical-align:top;">:</td><td><div></div></td></tr><tr><td style="font-weight:bold;vertical-align:top;">form_label_separator</td><td style="vertical-align:top;">:</td><td><div>: </div></td></tr><tr><td style="font-weight:bold;vertical-align:top;">formstyle</td><td style="vertical-align:top;">:</td><td><div>table3cols</div></td></tr><tr><td style="font-weight:bold;vertical-align:top;">generic_patterns</td><td style="vertical-align:top;">:</td><td><div><table><tr><td><div>*</div></td></tr></table></div></td></tr><tr><td style="font-weight:bold;vertical-align:top;">headers</td><td style="vertical-align:top;">:</td><td><div><table><tr><td style="font-weight:bold;vertical-align:top;">X-Powered-By</td><td style="vertical-align:top;">:</td><td><div>web2py</div></td></tr></table></div></td></tr><tr><td style="font-weight:bold;vertical-align:top;">menu</td><td style="vertical-align:top;">:</td><td><div><table></table></div></td></tr><tr><td style="font-weight:bold;vertical-align:top;">meta</td><td style="vertical-align:top;">:</td><td><div><table></table></div></td></tr><tr><td style="font-weight:bold;vertical-align:top;">models_to_run</td><td style="vertical-align:top;">:</td><td><div><table><tr><td><div>^\\w+\\.py$</div></td></tr><tr><td><div>^appadmin/\\w+\\.py$</div></td></tr><tr><td><div>^appadmin/index/\\w+\\.py$</div></td></tr></table></div></td></tr><tr><td style="font-weight:bold;vertical-align:top;">postprocessing</td><td style="vertical-align:top;">:</td><td><div><table></table></div></td></tr><tr><td style="font-weight:bold;vertical-align:top;">session_client</td><td style="vertical-align:top;">:</td><td><div>127.0.0.1</div></td></tr><tr><td style="font-weight:bold;vertical-align:top;">session_cookie_compression_level</td><td style="vertical-align:top;">:</td><td><div>None</div></td></tr><tr><td style="font-weight:bold;vertical-align:top;">session_cookie_expires</td><td style="vertical-align:top;">:</td><td><div>None</div></td></tr><tr><td style="font-weight:bold;vertical-align:top;">session_data_name</td><td style="vertical-align:top;">:</td><td><div>session_data_for_sale_listing</div></td></tr><tr><td style="font-weight:bold;vertical-align:top;">session_file</td><td style="vertical-align:top;">:</td><td><div>&lt;open file &#x27;/Users/cjzhou/Desktop/web2py/applications/for_sale_listing/sessions/0a3/093/127.0.0.1-1c2bc77c-93b1-46be-b816-a34f1745edf0&#x27;, mode &#x27;rb+&#x27; at 0x10c9b3030&gt;</div></td></tr><tr><td style="font-weight:bold;vertical-align:top;">session_filename</td><td style="vertical-align:top;">:</td><td><div>/Users/cjzhou/Desktop/web2py/applications/for_sale_listing/sessions/127.0.0.1-1c2bc77c-93b1-46be-b816-a34f1745edf0</div></td></tr><tr><td style="font-weight:bold;vertical-align:top;">session_hash</td><td style="vertical-align:top;">:</td><td><div>d38f2ceb34628edb4919f48f9f1e4637</div></td></tr><tr><td style="font-weight:bold;vertical-align:top;">session_id</td><td style="vertical-align:top;">:</td><td><div>127.0.0.1-1c2bc77c-93b1-46be-b816-a34f1745edf0</div></td></tr><tr><td style="font-weight:bold;vertical-align:top;">session_id_name</td><td style="vertical-align:top;">:</td><td><div>session_id_for_sale_listing</div></td></tr><tr><td style="font-weight:bold;vertical-align:top;">session_locked</td><td style="vertical-align:top;">:</td><td><div>True</div></td></tr><tr><td style="font-weight:bold;vertical-align:top;">session_masterapp</td><td style="vertical-align:top;">:</td><td><div>for_sale_listing</div></td></tr><tr><td style="font-weight:bold;vertical-align:top;">session_new</td><td style="vertical-align:top;">:</td><td><div>False</div></td></tr><tr><td style="font-weight:bold;vertical-align:top;">session_storage_type</td><td style="vertical-align:top;">:</td><td><div>file</div></td></tr><tr><td style="font-weight:bold;vertical-align:top;">status</td><td style="vertical-align:top;">:</td><td><div>200</div></td></tr><tr><td style="font-weight:bold;vertical-align:top;">view</td><td style="vertical-align:top;">:</td><td><div>appadmin/index.html</div></td></tr></table></div>'
tRp179
sS'locals'
p180
(dp181
S'dbpath'
p182
S"'/Users/cjzhou/Desktop/web2py/applications/for_sale_listing/databases'"
p183
sS'migrate'
p184
S'True'
p185
sS'query'
p186
S"'CREATE TABLE item(\\n    id INTEGER PRIMARY KEY AU...    item_description TEXT,\\n    price CHAR(512)\\n);'"
p187
sS'table'
p188
S'<Table item (id, title, valid, file, seller, email, phone, category, item_description, price)>'
p189
sS'postcreation_fields'
p190
S'[]'
p191
sS'field_type'
p192
S"'string'"
p193
sS'self'
p194
S'<pydal.adapters.sqlite.SQLiteAdapter object>'
p195
sS'tablename'
p196
S"'item'"
p197
sS'field'
p198
S'<pydal.objects.Field object>'
p199
sS'ftype'
p200
S"'CHAR(512)'"
p201
sS'polymodel'
p202
S'None'
p203
sS'tfile'
p204
S'<pydal.contrib.portalocker.LockedFile object>'
p205
sS'db'
p206
S'<DAL uri="sqlite://storage.sqlite">'
p207
sS'fake_migrate'
p208
S'False'
p209
sS'sql_fields'
p210
S"{'category': {'length': 512, 'notnull': False, 'sortable': 8, 'sql': 'CHAR(512)', 'type': 'string', 'unique': False}, 'email': {'length': 512, 'notnull': False, 'sortable': 6, 'sql': 'CHAR(512)', 'type': 'string', 'unique': False}, 'file': {'length': 512, 'notnull': False, 'sortable': 4, 'sql': 'CHAR(512)', 'type': 'upload', 'unique': False}, 'id': {'length': 512, 'notnull': False, 'sortable': 1, 'sql': 'INTEGER PRIMARY KEY AUTOINCREMENT', 'type': 'id', 'unique': False}, 'item_description': {'length': 32768, 'notnull': False, 'sortable': 9, 'sql': 'TEXT', 'type': 'text', 'unique': False}, 'phone': {'length': 512, 'notnull': False, 'sortable': 7, 'sql': 'CHAR(512)', 'type': 'string', 'unique': False}, 'price': {'length': 512, 'notnull': False, 'sortable': 10, 'sql': 'CHAR(512)', 'type': 'string', 'unique': False}, 'seller': {'length': 512, 'notnull': False, 'sortable': 5, 'sql': 'CHAR(512)', 'type': 'string', 'unique': False}, 'title': {'length': 512, 'notnull': False, 'sortable': 2, 'sql': 'CHAR(512)', 'type': 'string', 'unique': False}, 'valid': {'length': 512, 'notnull': False, 'sortable': 3, 'sql': 'CHAR(1)', 'type': 'boolean', 'unique': False}}"
p211
sS'field_name'
p212
S"'price'"
p213
sS'types'
p214
S"{'big-id': 'INTEGER PRIMARY KEY AUTOINCREMENT', 'big-reference': 'INTEGER REFERENCES %(foreign_key)s ON DELETE %(on_delete_action)s %(null)s %(unique)s', 'bigint': 'INTEGER', 'blob': 'BLOB', 'boolean': 'CHAR(1)', 'date': 'DATE', 'datetime': 'TIMESTAMP', 'decimal': 'DOUBLE', 'double': 'DOUBLE', 'float': 'DOUBLE', ...}"
p215
sS'sortable'
p216
S'10'
p217
sS'sql_fields_aux'
p218
S"{'category': {'sql': 'CHAR(512)'}, 'email': {'sql': 'CHAR(512)'}, 'file': {'sql': 'CHAR(512)'}, 'id': {'sql': 'INTEGER PRIMARY KEY AUTOINCREMENT'}, 'item_description': {'sql': 'TEXT'}, 'phone': {'sql': 'CHAR(512)'}, 'price': {'sql': 'CHAR(512)'}, 'seller': {'sql': 'CHAR(512)'}, 'title': {'sql': 'CHAR(512)'}, 'valid': {'sql': 'CHAR(1)'}}"
p219
sS'TFK'
p220
g45
sS'fields'
p221
S"'id INTEGER PRIMARY KEY AUTOINCREMENT,\\n    title ...),\\n    item_description TEXT,\\n    price CHAR(512)'"
p222
sS'other'
p223
S"';'"
p224
sssS'traceback'
p225
S'Traceback (most recent call last):\n  File "/Users/cjzhou/Desktop/web2py/gluon/restricted.py", line 227, in restricted\n    exec ccode in environment\n  File "/Users/cjzhou/Desktop/web2py/applications/for_sale_listing/models/db.py", line 20, in <module>\n    format=\'%(title)s\')\n  File "/Users/cjzhou/Desktop/web2py/gluon/packages/dal/pydal/base.py", line 834, in define_table\n    table = self.lazy_define_table(tablename,*fields,**args)\n  File "/Users/cjzhou/Desktop/web2py/gluon/packages/dal/pydal/base.py", line 873, in lazy_define_table\n    polymodel=polymodel)\n  File "/Users/cjzhou/Desktop/web2py/gluon/packages/dal/pydal/adapters/base.py", line 503, in create_table\n    raise RuntimeError(\'File %s appears corrupted\' % table._dbt)\nRuntimeError: File /Users/cjzhou/Desktop/web2py/applications/for_sale_listing/databases/c8b669d15150d7109e5f7ab36744a5b7_item.table appears corrupted\n'
p226
s.