(dp1
S'output'
p2
S"<type 'exceptions.NameError'> name 'db' is not defined"
p3
sS'layer'
p4
S'/Users/cjzhou/Desktop/web2py/applications/for_sale_listing/models/db.py'
p5
sS'code'
p6
S'from gluon.tools import Auth\n\nauth = Auth(db)\nauth.define_tables()\n\n\ndb = DAL("sqlite://storage.sqlite")\n\ndb.define_table(\'item\',\n                Field(\'title\'),\n                Field(\'valid\', \'boolean\', default=False),\n                Field(\'file\', \'upload\'),\n                Field(\'seller\', db.auth_user, default=db.auth_user.first_name),\n                Field(\'email\'),\n                Field(\'phone\'),\n                Field(\'category\'),\n                Field(\'item_description\', \'text\'),\n                Field(\'price\'),\n                format=\'%(title)s\')\n\ndb.item.title.requires = IS_NOT_EMPTY()\n\ndb.item.seller.requires = IS_NOT_EMPTY()\n\ndb.item.phone.requires = IS_NOT_EMPTY()\n\ndb.item.email.requires = IS_EMAIL()\n\ndb.item.category.requires = IS_IN_SET([\'Car\', \'Bike\', \'Clothes\'], zero=T(\'choose category\'))\n\ndb.item.item_description.requires = IS_NOT_EMPTY()\n\ndb.item.price.requires = IS_NOT_EMPTY()\n\ndb.item.price.requires = IS_FLOAT_IN_RANGE(0, 100000.0, error_message=\'The price should be in the range 0..100000\')\n\ndb.item.valid.requires = IS_NOT_EMPTY()\n\n\n\n\n\n# # -*- coding: utf-8 -*-\n#\n# # -------------------------------------------------------------------------\n# # This scaffolding model makes your app work on Google App Engine too\n# # File is released under public domain and you can use without limitations\n# # -------------------------------------------------------------------------\n#\n# if request.global_settings.web2py_version < "2.14.1":\n#     raise HTTP(500, "Requires web2py 2.13.3 or newer")\n#\n# # -------------------------------------------------------------------------\n# # if SSL/HTTPS is properly configured and you want all HTTP requests to\n# # be redirected to HTTPS, uncomment the line below:\n# # -------------------------------------------------------------------------\n# # request.requires_https()\n#\n# # -------------------------------------------------------------------------\n# # app configuration made easy. Look inside private/appconfig.ini\n# # -------------------------------------------------------------------------\n# from gluon.contrib.appconfig import AppConfig\n#\n# # -------------------------------------------------------------------------\n# # once in production, remove reload=True to gain full speed\n# # -------------------------------------------------------------------------\n# myconf = AppConfig(reload=True)\n#\n# if not request.env.web2py_runtime_gae:\n#     # ---------------------------------------------------------------------\n#     # if NOT running on Google App Engine use SQLite or other DB\n#     # ---------------------------------------------------------------------\n#     db = DAL(myconf.get(\'db.uri\'),\n#              pool_size=myconf.get(\'db.pool_size\'),\n#              migrate_enabled=myconf.get(\'db.migrate\'),\n#              check_reserved=[\'all\'])\n# else:\n#     # ---------------------------------------------------------------------\n#     # connect to Google BigTable (optional \'google:datastore://namespace\')\n#     # ---------------------------------------------------------------------\n#     db = DAL(\'google:datastore+ndb\')\n#     # ---------------------------------------------------------------------\n#     # store sessions and tickets there\n#     # ---------------------------------------------------------------------\n#     session.connect(request, response, db=db)\n#     # ---------------------------------------------------------------------\n#     # or store session in Memcache, Redis, etc.\n#     # from gluon.contrib.memdb import MEMDB\n#     # from google.appengine.api.memcache import Client\n#     # session.connect(request, response, db = MEMDB(Client()))\n#     # ---------------------------------------------------------------------\n#\n# # -------------------------------------------------------------------------\n# # by default give a view/generic.extension to all actions from localhost\n# # none otherwise. a pattern can be \'controller/function.extension\'\n# # -------------------------------------------------------------------------\n# response.generic_patterns = [\'*\'] if request.is_local else []\n# # -------------------------------------------------------------------------\n# # choose a style for forms\n# # -------------------------------------------------------------------------\n# response.formstyle = myconf.get(\'forms.formstyle\')  # or \'bootstrap3_stacked\' or \'bootstrap2\' or other\n# response.form_label_separator = myconf.get(\'forms.separator\') or \'\'\n#\n# # -------------------------------------------------------------------------\n# # (optional) optimize handling of static files\n# # -------------------------------------------------------------------------\n# # response.optimize_css = \'concat,minify,inline\'\n# # response.optimize_js = \'concat,minify,inline\'\n#\n# # -------------------------------------------------------------------------\n# # (optional) static assets folder versioning\n# # -------------------------------------------------------------------------\n# # response.static_version = \'0.0.0\'\n#\n# # -------------------------------------------------------------------------\n# # Here is sample code if you need for\n# # - email capabilities\n# # - authentication (registration, login, logout, ... )\n# # - authorization (role based authorization)\n# # - services (xml, csv, json, xmlrpc, jsonrpc, amf, rss)\n# # - old style crud actions\n# # (more options discussed in gluon/tools.py)\n# # -------------------------------------------------------------------------\n#\n# from gluon.tools import Auth, Service, PluginManager\n#\n# # host names must be a list of allowed host names (glob syntax allowed)\n# auth = Auth(db, host_names=myconf.get(\'host.names\'))\n# service = Service()\n# plugins = PluginManager()\n#\n# # -------------------------------------------------------------------------\n# # create all tables needed by auth if not custom tables\n# # -------------------------------------------------------------------------\n# auth.define_tables(username=False, signature=False)\n#\n# # -------------------------------------------------------------------------\n# # configure email\n# # -------------------------------------------------------------------------\n# mail = auth.settings.mailer\n# mail.settings.server = \'logging\' if request.is_local else myconf.get(\'smtp.server\')\n# mail.settings.sender = myconf.get(\'smtp.sender\')\n# mail.settings.login = myconf.get(\'smtp.login\')\n# mail.settings.tls = myconf.get(\'smtp.tls\') or False\n# mail.settings.ssl = myconf.get(\'smtp.ssl\') or False\n#\n# # -------------------------------------------------------------------------\n# # configure auth policy\n# # -------------------------------------------------------------------------\n# auth.settings.registration_requires_verification = False\n# auth.settings.registration_requires_approval = False\n# auth.settings.reset_password_requires_verification = True\n#\n# # -------------------------------------------------------------------------\n# # Define your tables below (or better in another model file) for example\n# #\n# # >>> db.define_table(\'mytable\', Field(\'myfield\', \'string\'))\n# #\n# # Fields can be \'string\',\'text\',\'password\',\'integer\',\'double\',\'boolean\'\n# #       \'date\',\'time\',\'datetime\',\'blob\',\'upload\', \'reference TABLENAME\'\n# # There is an implicit \'id integer autoincrement\' field\n# # Consult manual for more options, validators, etc.\n# #\n# # More API examples for controllers:\n# #\n# # >>> db.mytable.insert(myfield=\'value\')\n# # >>> rows = db(db.mytable.myfield == \'value\').select(db.mytable.ALL)\n# # >>> for row in rows: print row.id, row.myfield\n# # -------------------------------------------------------------------------\n#\n# # -------------------------------------------------------------------------\n# # after defining tables, uncomment below to enable auditing\n# # -------------------------------------------------------------------------\n# # auth.enable_record_versioning(db)\n'
p7
sS'snapshot'
p8
(dp9
S'exception'
p10
(dp11
S'__hash__'
p12
S"<method-wrapper '__hash__' of exceptions.NameError object>"
p13
sS'__setattr__'
p14
S"<method-wrapper '__setattr__' of exceptions.NameError object>"
p15
sS'__reduce_ex__'
p16
S'<built-in method __reduce_ex__ of exceptions.NameError object>'
p17
sS'__getslice__'
p18
S"<method-wrapper '__getslice__' of exceptions.NameError object>"
p19
sS'__getitem__'
p20
S"<method-wrapper '__getitem__' of exceptions.NameError object>"
p21
sS'__setstate__'
p22
S'<built-in method __setstate__ of exceptions.NameError object>'
p23
sS'args'
p24
S'("name \'db\' is not defined",)'
p25
sS'__reduce__'
p26
S'<built-in method __reduce__ of exceptions.NameError object>'
p27
sS'__str__'
p28
S"<method-wrapper '__str__' of exceptions.NameError object>"
p29
sS'__format__'
p30
S'<built-in method __format__ of exceptions.NameError object>'
p31
sS'__getattribute__'
p32
S"<method-wrapper '__getattribute__' of exceptions.NameError object>"
p33
sS'__class__'
p34
S"<type 'exceptions.NameError'>"
p35
sS'__unicode__'
p36
S'<built-in method __unicode__ of exceptions.NameError object>'
p37
sS'__delattr__'
p38
S"<method-wrapper '__delattr__' of exceptions.NameError object>"
p39
sS'__subclasshook__'
p40
S'<built-in method __subclasshook__ of type object>'
p41
sS'__repr__'
p42
S"<method-wrapper '__repr__' of exceptions.NameError object>"
p43
sS'__dict__'
p44
S'{}'
p45
sS'__sizeof__'
p46
S'<built-in method __sizeof__ of exceptions.NameError object>'
p47
sS'__doc__'
p48
S"'Name not found globally.'"
p49
sS'__init__'
p50
S"<method-wrapper '__init__' of exceptions.NameError object>"
p51
sS'__new__'
p52
S'<built-in method __new__ of type object>'
p53
ssS'evalue'
p54
S"name 'db' is not defined"
p55
sS'request'
p56
cgluon.html
XML_unpickle
p57
(S's\x07]\x00\x00<div><table><tr><td style="font-weight:bold;vertical-align:top;">ajax</td><td style="vertical-align:top;">:</td><td><div>False</div></td></tr><tr><td style="font-weight:bold;vertical-align:top;">application</td><td style="vertical-align:top;">:</td><td><div>for_sale_listing</div></td></tr><tr><td style="font-weight:bold;vertical-align:top;">args</td><td style="vertical-align:top;">:</td><td><div><table></table></div></td></tr><tr><td style="font-weight:bold;vertical-align:top;">cid</td><td style="vertical-align:top;">:</td><td><div>None</div></td></tr><tr><td style="font-weight:bold;vertical-align:top;">client</td><td style="vertical-align:top;">:</td><td><div>127.0.0.1</div></td></tr><tr><td style="font-weight:bold;vertical-align:top;">controller</td><td style="vertical-align:top;">:</td><td><div>default</div></td></tr><tr><td style="font-weight:bold;vertical-align:top;">cookies</td><td style="vertical-align:top;">:</td><td><div><table><tr><td style="font-weight:bold;vertical-align:top;">session_id_admin</td><td style="vertical-align:top;">:</td><td><div>127.0.0.1-e132e258-32e3-4069-9f28-43e7499b1db9<table><tr><td style="font-weight:bold;vertical-align:top;">comment</td><td style="vertical-align:top;">:</td><td><div></div></td></tr><tr><td style="font-weight:bold;vertical-align:top;">domain</td><td style="vertical-align:top;">:</td><td><div></div></td></tr><tr><td style="font-weight:bold;vertical-align:top;">expires</td><td style="vertical-align:top;">:</td><td><div></div></td></tr><tr><td style="font-weight:bold;vertical-align:top;">httponly</td><td style="vertical-align:top;">:</td><td><div></div></td></tr><tr><td style="font-weight:bold;vertical-align:top;">max-age</td><td style="vertical-align:top;">:</td><td><div></div></td></tr><tr><td style="font-weight:bold;vertical-align:top;">path</td><td style="vertical-align:top;">:</td><td><div></div></td></tr><tr><td style="font-weight:bold;vertical-align:top;">secure</td><td style="vertical-align:top;">:</td><td><div></div></td></tr><tr><td style="font-weight:bold;vertical-align:top;">version</td><td style="vertical-align:top;">:</td><td><div></div></td></tr></table></div></td></tr><tr><td style="font-weight:bold;vertical-align:top;">session_id_for_sale_listing</td><td style="vertical-align:top;">:</td><td><div>127.0.0.1-1c2bc77c-93b1-46be-b816-a34f1745edf0<table><tr><td style="font-weight:bold;vertical-align:top;">comment</td><td style="vertical-align:top;">:</td><td><div></div></td></tr><tr><td style="font-weight:bold;vertical-align:top;">domain</td><td style="vertical-align:top;">:</td><td><div></div></td></tr><tr><td style="font-weight:bold;vertical-align:top;">expires</td><td style="vertical-align:top;">:</td><td><div></div></td></tr><tr><td style="font-weight:bold;vertical-align:top;">httponly</td><td style="vertical-align:top;">:</td><td><div></div></td></tr><tr><td style="font-weight:bold;vertical-align:top;">max-age</td><td style="vertical-align:top;">:</td><td><div></div></td></tr><tr><td style="font-weight:bold;vertical-align:top;">path</td><td style="vertical-align:top;">:</td><td><div></div></td></tr><tr><td style="font-weight:bold;vertical-align:top;">secure</td><td style="vertical-align:top;">:</td><td><div></div></td></tr><tr><td style="font-weight:bold;vertical-align:top;">version</td><td style="vertical-align:top;">:</td><td><div></div></td></tr></table></div></td></tr><tr><td style="font-weight:bold;vertical-align:top;">session_id_welcome</td><td style="vertical-align:top;">:</td><td><div>127.0.0.1-3aaea67a-d9df-49eb-8c3b-33ee59669a99<table><tr><td style="font-weight:bold;vertical-align:top;">comment</td><td style="vertical-align:top;">:</td><td><div></div></td></tr><tr><td style="font-weight:bold;vertical-align:top;">domain</td><td style="vertical-align:top;">:</td><td><div></div></td></tr><tr><td style="font-weight:bold;vertical-align:top;">expires</td><td style="vertical-align:top;">:</td><td><div></div></td></tr><tr><td style="font-weight:bold;vertical-align:top;">httponly</td><td style="vertical-align:top;">:</td><td><div></div></td></tr><tr><td style="font-weight:bold;vertical-align:top;">max-age</td><td style="vertical-align:top;">:</td><td><div></div></td></tr><tr><td style="font-weight:bold;vertical-align:top;">path</td><td style="vertical-align:top;">:</td><td><div></div></td></tr><tr><td style="font-weight:bold;vertical-align:top;">secure</td><td style="vertical-align:top;">:</td><td><div></div></td></tr><tr><td style="font-weight:bold;vertical-align:top;">version</td><td style="vertical-align:top;">:</td><td><div></div></td></tr></table></div></td></tr></table></div></td></tr><tr><td style="font-weight:bold;vertical-align:top;">env</td><td style="vertical-align:top;">:</td><td><div><table><tr><td style="font-weight:bold;vertical-align:top;">HTTP_ACCEPT</td><td style="vertical-align:top;">:</td><td><div>text/html,application/xhtml+xml,application/xml;q=0.9,*/*;q=0.8</div></td></tr><tr><td style="font-weight:bold;vertical-align:top;">HTTP_ACCEPT_ENCODING</td><td style="vertical-align:top;">:</td><td><div>gzip, deflate</div></td></tr><tr><td style="font-weight:bold;vertical-align:top;">HTTP_ACCEPT_LANGUAGE</td><td style="vertical-align:top;">:</td><td><div>en-us</div></td></tr><tr><td style="font-weight:bold;vertical-align:top;">HTTP_CACHE_CONTROL</td><td style="vertical-align:top;">:</td><td><div>max-age=0</div></td></tr><tr><td style="font-weight:bold;vertical-align:top;">HTTP_CONNECTION</td><td style="vertical-align:top;">:</td><td><div>keep-alive</div></td></tr><tr><td style="font-weight:bold;vertical-align:top;">HTTP_COOKIE</td><td style="vertical-align:top;">:</td><td><div>session_id_welcome=127.0.0.1-3aaea67a-d9df-49eb-8c3b-33ee59669a99; session_id_for_sale_listing=127.0.0.1-1c2bc77c-93b1-46be-b816-a34f1745edf0; session_id_admin=127.0.0.1-e132e258-32e3-4069-9f28-43e7499b1db9</div></td></tr><tr><td style="font-weight:bold;vertical-align:top;">HTTP_DNT</td><td style="vertical-align:top;">:</td><td><div>1</div></td></tr><tr><td style="font-weight:bold;vertical-align:top;">HTTP_HOST</td><td style="vertical-align:top;">:</td><td><div>127.0.0.1:8000</div></td></tr><tr><td style="font-weight:bold;vertical-align:top;">HTTP_UPGRADE_INSECURE_REQUESTS</td><td style="vertical-align:top;">:</td><td><div>1</div></td></tr><tr><td style="font-weight:bold;vertical-align:top;">HTTP_USER_AGENT</td><td style="vertical-align:top;">:</td><td><div>Mozilla/5.0 (Macintosh; Intel Mac OS X 10_12_3) AppleWebKit/602.4.8 (KHTML, like Gecko) Version/10.0.3 Safari/602.4.8</div></td></tr><tr><td style="font-weight:bold;vertical-align:top;">PATH_INFO</td><td style="vertical-align:top;">:</td><td><div>/for_sale_listing/default/index</div></td></tr><tr><td style="font-weight:bold;vertical-align:top;">QUERY_STRING</td><td style="vertical-align:top;">:</td><td><div></div></td></tr><tr><td style="font-weight:bold;vertical-align:top;">REMOTE_ADDR</td><td style="vertical-align:top;">:</td><td><div>127.0.0.1</div></td></tr><tr><td style="font-weight:bold;vertical-align:top;">REMOTE_PORT</td><td style="vertical-align:top;">:</td><td><div>51242</div></td></tr><tr><td style="font-weight:bold;vertical-align:top;">REQUEST_METHOD</td><td style="vertical-align:top;">:</td><td><div>GET</div></td></tr><tr><td style="font-weight:bold;vertical-align:top;">SCRIPT_NAME</td><td style="vertical-align:top;">:</td><td><div></div></td></tr><tr><td style="font-weight:bold;vertical-align:top;">SERVER_NAME</td><td style="vertical-align:top;">:</td><td><div>eduroam-169-233-240-147.ucsc.edu</div></td></tr><tr><td style="font-weight:bold;vertical-align:top;">SERVER_PORT</td><td style="vertical-align:top;">:</td><td><div>8000</div></td></tr><tr><td style="font-weight:bold;vertical-align:top;">SERVER_PROTOCOL</td><td style="vertical-align:top;">:</td><td><div>HTTP/1.1</div></td></tr><tr><td style="font-weight:bold;vertical-align:top;">SERVER_SOFTWARE</td><td style="vertical-align:top;">:</td><td><div>Rocket 1.2.6</div></td></tr><tr><td style="font-weight:bold;vertical-align:top;">app_folders</td><td style="vertical-align:top;">:</td><td><div>set([&#x27;/Users/cjzhou/Desktop/web2py/applications/for_sale_listing/&#x27;, &#x27;/Users/cjzhou/Desktop/web2py/applications/admin/&#x27;, &#x27;/Users/cjzhou/Desktop/web2py/applications/welcome/&#x27;])</div></td></tr><tr><td style="font-weight:bold;vertical-align:top;">applications_parent</td><td style="vertical-align:top;">:</td><td><div>/Users/cjzhou/Desktop/web2py</div></td></tr><tr><td style="font-weight:bold;vertical-align:top;">cmd_args</td><td style="vertical-align:top;">:</td><td><div><table></table></div></td></tr><tr><td style="font-weight:bold;vertical-align:top;">cmd_options</td><td style="vertical-align:top;">:</td><td><div>&lt;Values at 0x10ddc8440: {&#x27;verbose&#x27;: False, &#x27;ip&#x27;: &#x27;127.0.0.1&#x27;, &#x27;debuglevel&#x27;: 30, &#x27;with_scheduler&#x27;: False, &#x27;shutdown_timeout&#x27;: 5, &#x27;taskbar&#x27;: False, &#x27;with_coverage&#x27;: False, &#x27;pid_filename&#x27;: &#x27;httpserver.pid&#x27;, &#x27;maxthreads&#x27;: None, &#x27;softcron&#x27;: False, &#x27;server_name&#x27;: &#x27;eduroam-169-233-240-147.ucsc.edu&#x27;, &#x27;bpython&#x27;: False, &#x27;nogui&#x27;: False, &#x27;port&#x27;: 8000, &#x27;print_errors&#x27;: False, &#x27;extcron&#x27;: False, &#x27;runcron&#x27;: False, &#x27;run_system_tests&#x27;: False, &#x27;test&#x27;: None, &#x27;folder&#x27;: &#x27;/Users/cjzhou/Desktop/web2py&#x27;, &#x27;config&#x27;: &#x27;&#x27;, &#x27;minthreads&#x27;: None, &#x27;shell&#x27;: None, &#x27;run&#x27;: &#x27;&#x27;, &#x27;log_filename&#x27;: &#x27;httpserver.log&#x27;, &#x27;profiler_dir&#x27;: None, &#x27;args&#x27;: [&#x27;&#x27;], &#x27;socket_timeout&#x27;: 5, &#x27;ssl_ca_certificate&#x27;: None, &#x27;scheduler&#x27;: None, &#x27;interfaces&#x27;: None, &#x27;ssl_private_key&#x27;: &#x27;&#x27;, &#x27;gae&#x27;: None, &#x27;password&#x27;: &#x27;******&#x27;, &#x27;request_queue_size&#x27;: 5, &#x27;ssl_certificate&#x27;: &#x27;&#x27;, &#x27;cronjob&#x27;: False, &#x27;numthreads&#x27;: None, &#x27;quiet&#x27;: False, &#x27;import_models&#x27;: False, &#x27;timeout&#x27;: 10, &#x27;plain&#x27;: False, &#x27;nobanner&#x27;: False}&gt;</div></td></tr><tr><td style="font-weight:bold;vertical-align:top;">db_sessions</td><td style="vertical-align:top;">:</td><td><div>set([])</div></td></tr><tr><td style="font-weight:bold;vertical-align:top;">debugging</td><td style="vertical-align:top;">:</td><td><div>False</div></td></tr><tr><td style="font-weight:bold;vertical-align:top;">gluon_parent</td><td style="vertical-align:top;">:</td><td><div>/Users/cjzhou/Desktop/web2py</div></td></tr><tr><td style="font-weight:bold;vertical-align:top;">http_accept</td><td style="vertical-align:top;">:</td><td><div>text/html,application/xhtml+xml,application/xml;q=0.9,*/*;q=0.8</div></td></tr><tr><td style="font-weight:bold;vertical-align:top;">http_accept_encoding</td><td style="vertical-align:top;">:</td><td><div>gzip, deflate</div></td></tr><tr><td style="font-weight:bold;vertical-align:top;">http_accept_language</td><td style="vertical-align:top;">:</td><td><div>en-us</div></td></tr><tr><td style="font-weight:bold;vertical-align:top;">http_cache_control</td><td style="vertical-align:top;">:</td><td><div>max-age=0</div></td></tr><tr><td style="font-weight:bold;vertical-align:top;">http_connection</td><td style="vertical-align:top;">:</td><td><div>keep-alive</div></td></tr><tr><td style="font-weight:bold;vertical-align:top;">http_cookie</td><td style="vertical-align:top;">:</td><td><div>session_id_welcome=127.0.0.1-3aaea67a-d9df-49eb-8c3b-33ee59669a99; session_id_for_sale_listing=127.0.0.1-1c2bc77c-93b1-46be-b816-a34f1745edf0; session_id_admin=127.0.0.1-e132e258-32e3-4069-9f28-43e7499b1db9</div></td></tr><tr><td style="font-weight:bold;vertical-align:top;">http_dnt</td><td style="vertical-align:top;">:</td><td><div>1</div></td></tr><tr><td style="font-weight:bold;vertical-align:top;">http_host</td><td style="vertical-align:top;">:</td><td><div>127.0.0.1:8000</div></td></tr><tr><td style="font-weight:bold;vertical-align:top;">http_upgrade_insecure_requests</td><td style="vertical-align:top;">:</td><td><div>1</div></td></tr><tr><td style="font-weight:bold;vertical-align:top;">http_user_agent</td><td style="vertical-align:top;">:</td><td><div>Mozilla/5.0 (Macintosh; Intel Mac OS X 10_12_3) AppleWebKit/602.4.8 (KHTML, like Gecko) Version/10.0.3 Safari/602.4.8</div></td></tr><tr><td style="font-weight:bold;vertical-align:top;">is_jython</td><td style="vertical-align:top;">:</td><td><div>False</div></td></tr><tr><td style="font-weight:bold;vertical-align:top;">is_pypy</td><td style="vertical-align:top;">:</td><td><div>False</div></td></tr><tr><td style="font-weight:bold;vertical-align:top;">is_source</td><td style="vertical-align:top;">:</td><td><div>True</div></td></tr><tr><td style="font-weight:bold;vertical-align:top;">local_hosts</td><td style="vertical-align:top;">:</td><td><div><table><tr><td><div>::1</div></td></tr><tr><td><div>169.233.240.147</div></td></tr><tr><td><div>::ffff:127.0.0.1</div></td></tr><tr><td><div>127.0.0.1</div></td></tr><tr><td><div>eduroam-169-233-240-147.ucsc.edu</div></td></tr></table></div></td></tr><tr><td style="font-weight:bold;vertical-align:top;">path_info</td><td style="vertical-align:top;">:</td><td><div>/for_sale_listing/default/index</div></td></tr><tr><td style="font-weight:bold;vertical-align:top;">query_string</td><td style="vertical-align:top;">:</td><td><div></div></td></tr><tr><td style="font-weight:bold;vertical-align:top;">remote_addr</td><td style="vertical-align:top;">:</td><td><div>127.0.0.1</div></td></tr><tr><td style="font-weight:bold;vertical-align:top;">remote_port</td><td style="vertical-align:top;">:</td><td><div>51242</div></td></tr><tr><td style="font-weight:bold;vertical-align:top;">request_method</td><td style="vertical-align:top;">:</td><td><div>GET</div></td></tr><tr><td style="font-weight:bold;vertical-align:top;">request_uri</td><td style="vertical-align:top;">:</td><td><div>/for_sale_listing/default/index</div></td></tr><tr><td style="font-weight:bold;vertical-align:top;">script_name</td><td style="vertical-align:top;">:</td><td><div></div></td></tr><tr><td style="font-weight:bold;vertical-align:top;">server_name</td><td style="vertical-align:top;">:</td><td><div>eduroam-169-233-240-147.ucsc.edu</div></td></tr><tr><td style="font-weight:bold;vertical-align:top;">server_port</td><td style="vertical-align:top;">:</td><td><div>8000</div></td></tr><tr><td style="font-weight:bold;vertical-align:top;">server_protocol</td><td style="vertical-align:top;">:</td><td><div>HTTP/1.1</div></td></tr><tr><td style="font-weight:bold;vertical-align:top;">server_software</td><td style="vertical-align:top;">:</td><td><div>Rocket 1.2.6</div></td></tr><tr><td style="font-weight:bold;vertical-align:top;">web2py_path</td><td style="vertical-align:top;">:</td><td><div>/Users/cjzhou/Desktop/web2py</div></td></tr><tr><td style="font-weight:bold;vertical-align:top;">web2py_version</td><td style="vertical-align:top;">:</td><td><div>2.14.6-stable+timestamp.2016.05.10.00.21.47</div></td></tr><tr><td style="font-weight:bold;vertical-align:top;">wsgi.errors</td><td style="vertical-align:top;">:</td><td><div>&lt;open file &#x27;&lt;stderr&gt;&#x27;, mode &#x27;w&#x27; at 0x10cb341e0&gt;</div></td></tr><tr><td style="font-weight:bold;vertical-align:top;">wsgi.file_wrapper</td><td style="vertical-align:top;">:</td><td><div>&lt;class wsgiref.util.FileWrapper at 0x10dd669a8&gt;</div></td></tr><tr><td style="font-weight:bold;vertical-align:top;">wsgi.input</td><td style="vertical-align:top;">:</td><td><div>&lt;socket._fileobject object at 0x116f718d0&gt;</div></td></tr><tr><td style="font-weight:bold;vertical-align:top;">wsgi.multiprocess</td><td style="vertical-align:top;">:</td><td><div>False</div></td></tr><tr><td style="font-weight:bold;vertical-align:top;">wsgi.multithread</td><td style="vertical-align:top;">:</td><td><div>True</div></td></tr><tr><td style="font-weight:bold;vertical-align:top;">wsgi.run_once</td><td style="vertical-align:top;">:</td><td><div>False</div></td></tr><tr><td style="font-weight:bold;vertical-align:top;">wsgi.url_scheme</td><td style="vertical-align:top;">:</td><td><div>http</div></td></tr><tr><td style="font-weight:bold;vertical-align:top;">wsgi.version</td><td style="vertical-align:top;">:</td><td><div><table><tr><td><div>1</div></td></tr><tr><td><div>0</div></td></tr></table></div></td></tr><tr><td style="font-weight:bold;vertical-align:top;">wsgi_errors</td><td style="vertical-align:top;">:</td><td><div>&lt;open file &#x27;&lt;stderr&gt;&#x27;, mode &#x27;w&#x27; at 0x10cb341e0&gt;</div></td></tr><tr><td style="font-weight:bold;vertical-align:top;">wsgi_file_wrapper</td><td style="vertical-align:top;">:</td><td><div>&lt;class wsgiref.util.FileWrapper at 0x10dd669a8&gt;</div></td></tr><tr><td style="font-weight:bold;vertical-align:top;">wsgi_input</td><td style="vertical-align:top;">:</td><td><div>&lt;socket._fileobject object at 0x116f718d0&gt;</div></td></tr><tr><td style="font-weight:bold;vertical-align:top;">wsgi_multiprocess</td><td style="vertical-align:top;">:</td><td><div>False</div></td></tr><tr><td style="font-weight:bold;vertical-align:top;">wsgi_multithread</td><td style="vertical-align:top;">:</td><td><div>True</div></td></tr><tr><td style="font-weight:bold;vertical-align:top;">wsgi_run_once</td><td style="vertical-align:top;">:</td><td><div>False</div></td></tr><tr><td style="font-weight:bold;vertical-align:top;">wsgi_url_scheme</td><td style="vertical-align:top;">:</td><td><div>http</div></td></tr><tr><td style="font-weight:bold;vertical-align:top;">wsgi_version</td><td style="vertical-align:top;">:</td><td><div><table><tr><td><div>1</div></td></tr><tr><td><div>0</div></td></tr></table></div></td></tr></table></div></td></tr><tr><td style="font-weight:bold;vertical-align:top;">extension</td><td style="vertical-align:top;">:</td><td><div>html</div></td></tr><tr><td style="font-weight:bold;vertical-align:top;">folder</td><td style="vertical-align:top;">:</td><td><div>/Users/cjzhou/Desktop/web2py/applications/for_sale_listing/</div></td></tr><tr><td style="font-weight:bold;vertical-align:top;">function</td><td style="vertical-align:top;">:</td><td><div>index</div></td></tr><tr><td style="font-weight:bold;vertical-align:top;">global_settings</td><td style="vertical-align:top;">:</td><td><div><table><tr><td style="font-weight:bold;vertical-align:top;">app_folders</td><td style="vertical-align:top;">:</td><td><div>set([&#x27;/Users/cjzhou/Desktop/web2py/applications/for_sale_listing/&#x27;, &#x27;/Users/cjzhou/Desktop/web2py/applications/admin/&#x27;, &#x27;/Users/cjzhou/Desktop/web2py/applications/welcome/&#x27;])</div></td></tr><tr><td style="font-weight:bold;vertical-align:top;">applications_parent</td><td style="vertical-align:top;">:</td><td><div>/Users/cjzhou/Desktop/web2py</div></td></tr><tr><td style="font-weight:bold;vertical-align:top;">cmd_args</td><td style="vertical-align:top;">:</td><td><div><table></table></div></td></tr><tr><td style="font-weight:bold;vertical-align:top;">cmd_options</td><td style="vertical-align:top;">:</td><td><div>&lt;Values at 0x10ddc8440: {&#x27;verbose&#x27;: False, &#x27;ip&#x27;: &#x27;127.0.0.1&#x27;, &#x27;debuglevel&#x27;: 30, &#x27;with_scheduler&#x27;: False, &#x27;shutdown_timeout&#x27;: 5, &#x27;taskbar&#x27;: False, &#x27;with_coverage&#x27;: False, &#x27;pid_filename&#x27;: &#x27;httpserver.pid&#x27;, &#x27;maxthreads&#x27;: None, &#x27;softcron&#x27;: False, &#x27;server_name&#x27;: &#x27;eduroam-169-233-240-147.ucsc.edu&#x27;, &#x27;bpython&#x27;: False, &#x27;nogui&#x27;: False, &#x27;port&#x27;: 8000, &#x27;print_errors&#x27;: False, &#x27;extcron&#x27;: False, &#x27;runcron&#x27;: False, &#x27;run_system_tests&#x27;: False, &#x27;test&#x27;: None, &#x27;folder&#x27;: &#x27;/Users/cjzhou/Desktop/web2py&#x27;, &#x27;config&#x27;: &#x27;&#x27;, &#x27;minthreads&#x27;: None, &#x27;shell&#x27;: None, &#x27;run&#x27;: &#x27;&#x27;, &#x27;log_filename&#x27;: &#x27;httpserver.log&#x27;, &#x27;profiler_dir&#x27;: None, &#x27;args&#x27;: [&#x27;&#x27;], &#x27;socket_timeout&#x27;: 5, &#x27;ssl_ca_certificate&#x27;: None, &#x27;scheduler&#x27;: None, &#x27;interfaces&#x27;: None, &#x27;ssl_private_key&#x27;: &#x27;&#x27;, &#x27;gae&#x27;: None, &#x27;password&#x27;: &#x27;******&#x27;, &#x27;request_queue_size&#x27;: 5, &#x27;ssl_certificate&#x27;: &#x27;&#x27;, &#x27;cronjob&#x27;: False, &#x27;numthreads&#x27;: None, &#x27;quiet&#x27;: False, &#x27;import_models&#x27;: False, &#x27;timeout&#x27;: 10, &#x27;plain&#x27;: False, &#x27;nobanner&#x27;: False}&gt;</div></td></tr><tr><td style="font-weight:bold;vertical-align:top;">db_sessions</td><td style="vertical-align:top;">:</td><td><div>set([])</div></td></tr><tr><td style="font-weight:bold;vertical-align:top;">debugging</td><td style="vertical-align:top;">:</td><td><div>False</div></td></tr><tr><td style="font-weight:bold;vertical-align:top;">gluon_parent</td><td style="vertical-align:top;">:</td><td><div>/Users/cjzhou/Desktop/web2py</div></td></tr><tr><td style="font-weight:bold;vertical-align:top;">is_jython</td><td style="vertical-align:top;">:</td><td><div>False</div></td></tr><tr><td style="font-weight:bold;vertical-align:top;">is_pypy</td><td style="vertical-align:top;">:</td><td><div>False</div></td></tr><tr><td style="font-weight:bold;vertical-align:top;">is_source</td><td style="vertical-align:top;">:</td><td><div>True</div></td></tr><tr><td style="font-weight:bold;vertical-align:top;">local_hosts</td><td style="vertical-align:top;">:</td><td><div><table><tr><td><div>::1</div></td></tr><tr><td><div>169.233.240.147</div></td></tr><tr><td><div>::ffff:127.0.0.1</div></td></tr><tr><td><div>127.0.0.1</div></td></tr><tr><td><div>eduroam-169-233-240-147.ucsc.edu</div></td></tr></table></div></td></tr><tr><td style="font-weight:bold;vertical-align:top;">web2py_version</td><td style="vertical-align:top;">:</td><td><div>2.14.6-stable+timestamp.2016.05.10.00.21.47</div></td></tr></table></div></td></tr><tr><td style="font-weight:bold;vertical-align:top;">is_https</td><td style="vertical-align:top;">:</td><td><div>False</div></td></tr><tr><td style="font-weight:bold;vertical-align:top;">is_local</td><td style="vertical-align:top;">:</td><td><div>True</div></td></tr><tr><td style="font-weight:bold;vertical-align:top;">is_restful</td><td style="vertical-align:top;">:</td><td><div>False</div></td></tr><tr><td style="font-weight:bold;vertical-align:top;">is_scheduler</td><td style="vertical-align:top;">:</td><td><div>False</div></td></tr><tr><td style="font-weight:bold;vertical-align:top;">is_shell</td><td style="vertical-align:top;">:</td><td><div>False</div></td></tr><tr><td style="font-weight:bold;vertical-align:top;">now</td><td style="vertical-align:top;">:</td><td><div>datetime.datetime(2017, 2, 3, 13, 47, 23, 946991)</div></td></tr><tr><td style="font-weight:bold;vertical-align:top;">raw_args</td><td style="vertical-align:top;">:</td><td><div></div></td></tr><tr><td style="font-weight:bold;vertical-align:top;">raw_extension</td><td style="vertical-align:top;">:</td><td><div>None</div></td></tr><tr><td style="font-weight:bold;vertical-align:top;">url</td><td style="vertical-align:top;">:</td><td><div>/for_sale_listing/default/index</div></td></tr><tr><td style="font-weight:bold;vertical-align:top;">utcnow</td><td style="vertical-align:top;">:</td><td><div>datetime.datetime(2017, 2, 3, 21, 47, 23, 947000)</div></td></tr><tr><td style="font-weight:bold;vertical-align:top;">wsgi</td><td style="vertical-align:top;">:</td><td><div>&lt;gluon.main.LazyWSGI object at 0x115bedc50&gt;</div></td></tr></table></div>'
tRp58
sS'frames'
p59
(lp60
(dp61
S'file'
p62
S'/Users/cjzhou/Desktop/web2py/gluon/restricted.py'
p63
sS'dump'
p64
(dp65
S'environment'
p66
S"{'A': <class 'gluon.html.A'>, 'ANY_OF': <class 'gluon.validators.ANY_OF'>, 'ASSIGNJS': <function ASSIGNJS>, 'Auth': <class 'gluon.tools.Auth'>, 'B': <class 'gluon.html.B'>, 'BEAUTIFY': <class 'gluon.html.BEAUTIFY'>, 'BODY': <class 'gluon.html.BODY'>, 'BR': <class 'gluon.html.BR'>, 'BUTTON': <class 'gluon.html.BUTTON'>, 'CAT': <class 'gluon.html.CAT'>, ...}"
p67
sS'ccode'
p68
S'<code object <module> at 0x115573030, file "/Use...lications/for_sale_listing/models/db.py", line 1>'
p69
ssS'lnum'
p70
I227
sS'lines'
p71
(dp72
I224
S'            ccode = code'
p73
sI225
S'        else:'
p74
sI226
S'            ccode = compile2(code, layer)'
p75
sI227
S'        exec ccode in environment'
p76
sI228
S'    except HTTP:'
p77
sI229
S'        raise'
p78
sI230
S'    except RestrictedError:'
p79
sI231
S'        # do not encapsulate (obfuscate) the original RestrictedError'
p80
sI222
S'    try:'
p81
sI223
S'        if isinstance(code, types.CodeType):'
p82
ssS'call'
p83
S"(code='from gluon.tools import Auth\\n\\nauth = Auth(db)\\nau...----------\\n# # auth.enable_record_versioning(db)\\n', environment={'A': <class 'gluon.html.A'>, 'ANY_OF': <class 'gluon.validators.ANY_OF'>, 'ASSIGNJS': <function ASSIGNJS>, 'Auth': <class 'gluon.tools.Auth'>, 'B': <class 'gluon.html.B'>, 'BEAUTIFY': <class 'gluon.html.BEAUTIFY'>, 'BODY': <class 'gluon.html.BODY'>, 'BR': <class 'gluon.html.BR'>, 'BUTTON': <class 'gluon.html.BUTTON'>, 'CAT': <class 'gluon.html.CAT'>, ...}, layer='/Users/cjzhou/Desktop/web2py/applications/for_sale_listing/models/db.py')"
p84
sS'func'
p85
S'restricted'
p86
sa(dp87
g62
S'/Users/cjzhou/Desktop/web2py/applications/for_sale_listing/models/db.py'
p88
sg64
(dp89
S'db'
p90
S'undefined'
p91
sS'Auth'
p92
S"<class 'gluon.tools.Auth'>"
p93
sS'auth'
p94
g91
ssg70
I3
sg71
(dp95
I2
S''
sI3
S'auth = Auth(db)'
p96
sI4
S'auth.define_tables()'
p97
sI5
S''
sI6
S''
sI7
S'db = DAL("sqlite://storage.sqlite")'
p98
sI8
S''
sI9
S"db.define_table('item',"
p99
sI10
S"                Field('title'),"
p100
sI11
S"                Field('valid', 'boolean', default=False),"
p101
ssg83
S'()'
p102
sg85
S'<module>'
p103
sasS'pyver'
p104
S'Python 2.7.12: /usr/local/opt/python/bin/python2.7 (prefix: /usr/local/Cellar/python/2.7.12_2/Frameworks/Python.framework/Versions/2.7)'
p105
sS'session'
p106
g57
(S'sv\t\x00\x00<div><table><tr><td style="font-weight:bold;vertical-align:top;">auth</td><td style="vertical-align:top;">:</td><td><div><table><tr><td style="font-weight:bold;vertical-align:top;">expiration</td><td style="vertical-align:top;">:</td><td><div>3600</div></td></tr><tr><td style="font-weight:bold;vertical-align:top;">hmac_key</td><td style="vertical-align:top;">:</td><td><div>b3572d67-50ae-4c90-8bb1-6bca0b0ad828</div></td></tr><tr><td style="font-weight:bold;vertical-align:top;">last_visit</td><td style="vertical-align:top;">:</td><td><div>datetime.datetime(2017, 2, 3, 13, 39, 53, 684031)</div></td></tr><tr><td style="font-weight:bold;vertical-align:top;">user</td><td style="vertical-align:top;">:</td><td><div><table><tr><td style="font-weight:bold;vertical-align:top;">email</td><td style="vertical-align:top;">:</td><td><div>tom@gmail.com</div></td></tr><tr><td style="font-weight:bold;vertical-align:top;">first_name</td><td style="vertical-align:top;">:</td><td><div>Tom</div></td></tr><tr><td style="font-weight:bold;vertical-align:top;">id</td><td style="vertical-align:top;">:</td><td><div>1L</div></td></tr><tr><td style="font-weight:bold;vertical-align:top;">last_name</td><td style="vertical-align:top;">:</td><td><div>Tom</div></td></tr><tr><td style="font-weight:bold;vertical-align:top;">registration_id</td><td style="vertical-align:top;">:</td><td><div></div></td></tr><tr><td style="font-weight:bold;vertical-align:top;">registration_key</td><td style="vertical-align:top;">:</td><td><div></div></td></tr><tr><td style="font-weight:bold;vertical-align:top;">reset_password_key</td><td style="vertical-align:top;">:</td><td><div></div></td></tr></table></div></td></tr><tr><td style="font-weight:bold;vertical-align:top;">user_groups</td><td style="vertical-align:top;">:</td><td><div><table><tr><td style="font-weight:bold;vertical-align:top;">1</td><td style="vertical-align:top;">:</td><td><div>user_1</div></td></tr></table></div></td></tr></table></div></td></tr><tr><td style="font-weight:bold;vertical-align:top;">flash</td><td style="vertical-align:top;">:</td><td><div>None</div></td></tr><tr><td style="font-weight:bold;vertical-align:top;">last_orderby</td><td style="vertical-align:top;">:</td><td><div>None</div></td></tr><tr><td style="font-weight:bold;vertical-align:top;">last_query</td><td style="vertical-align:top;">:</td><td><div>db.auth_user.id&gt;0</div></td></tr></table></div>'
tRp107
sS'etype'
p108
S"<type 'exceptions.NameError'>"
p109
sS'date'
p110
S'Fri Feb  3 13:47:23 2017'
p111
sS'response'
p112
g57
(S's\xa1\x17\x00\x00<div><table><tr><td style="font-weight:bold;vertical-align:top;">body</td><td style="vertical-align:top;">:</td><td><div>&lt;cStringIO.StringO object at 0x116a04260&gt;</div></td></tr><tr><td style="font-weight:bold;vertical-align:top;">cookies</td><td style="vertical-align:top;">:</td><td><div><table><tr><td style="font-weight:bold;vertical-align:top;">session_id_for_sale_listing</td><td style="vertical-align:top;">:</td><td><div>127.0.0.1-1c2bc77c-93b1-46be-b816-a34f1745edf0<table><tr><td style="font-weight:bold;vertical-align:top;">comment</td><td style="vertical-align:top;">:</td><td><div></div></td></tr><tr><td style="font-weight:bold;vertical-align:top;">domain</td><td style="vertical-align:top;">:</td><td><div></div></td></tr><tr><td style="font-weight:bold;vertical-align:top;">expires</td><td style="vertical-align:top;">:</td><td><div></div></td></tr><tr><td style="font-weight:bold;vertical-align:top;">httponly</td><td style="vertical-align:top;">:</td><td><div></div></td></tr><tr><td style="font-weight:bold;vertical-align:top;">max-age</td><td style="vertical-align:top;">:</td><td><div></div></td></tr><tr><td style="font-weight:bold;vertical-align:top;">path</td><td style="vertical-align:top;">:</td><td><div>/</div></td></tr><tr><td style="font-weight:bold;vertical-align:top;">secure</td><td style="vertical-align:top;">:</td><td><div></div></td></tr><tr><td style="font-weight:bold;vertical-align:top;">version</td><td style="vertical-align:top;">:</td><td><div></div></td></tr></table></div></td></tr></table></div></td></tr><tr><td style="font-weight:bold;vertical-align:top;">delimiters</td><td style="vertical-align:top;">:</td><td><div><table><tr><td><div>{{</div></td></tr><tr><td><div>}}</div></td></tr></table></div></td></tr><tr><td style="font-weight:bold;vertical-align:top;">files</td><td style="vertical-align:top;">:</td><td><div><table></table></div></td></tr><tr><td style="font-weight:bold;vertical-align:top;">flash</td><td style="vertical-align:top;">:</td><td><div></div></td></tr><tr><td style="font-weight:bold;vertical-align:top;">form_label_separator</td><td style="vertical-align:top;">:</td><td><div>: </div></td></tr><tr><td style="font-weight:bold;vertical-align:top;">formstyle</td><td style="vertical-align:top;">:</td><td><div>table3cols</div></td></tr><tr><td style="font-weight:bold;vertical-align:top;">generic_patterns</td><td style="vertical-align:top;">:</td><td><div><table><tr><td><div>*</div></td></tr></table></div></td></tr><tr><td style="font-weight:bold;vertical-align:top;">headers</td><td style="vertical-align:top;">:</td><td><div><table><tr><td style="font-weight:bold;vertical-align:top;">X-Powered-By</td><td style="vertical-align:top;">:</td><td><div>web2py</div></td></tr></table></div></td></tr><tr><td style="font-weight:bold;vertical-align:top;">menu</td><td style="vertical-align:top;">:</td><td><div><table></table></div></td></tr><tr><td style="font-weight:bold;vertical-align:top;">meta</td><td style="vertical-align:top;">:</td><td><div><table></table></div></td></tr><tr><td style="font-weight:bold;vertical-align:top;">models_to_run</td><td style="vertical-align:top;">:</td><td><div><table><tr><td><div>^\\w+\\.py$</div></td></tr><tr><td><div>^default/\\w+\\.py$</div></td></tr><tr><td><div>^default/index/\\w+\\.py$</div></td></tr></table></div></td></tr><tr><td style="font-weight:bold;vertical-align:top;">postprocessing</td><td style="vertical-align:top;">:</td><td><div><table></table></div></td></tr><tr><td style="font-weight:bold;vertical-align:top;">session_client</td><td style="vertical-align:top;">:</td><td><div>127.0.0.1</div></td></tr><tr><td style="font-weight:bold;vertical-align:top;">session_cookie_compression_level</td><td style="vertical-align:top;">:</td><td><div>None</div></td></tr><tr><td style="font-weight:bold;vertical-align:top;">session_cookie_expires</td><td style="vertical-align:top;">:</td><td><div>None</div></td></tr><tr><td style="font-weight:bold;vertical-align:top;">session_data_name</td><td style="vertical-align:top;">:</td><td><div>session_data_for_sale_listing</div></td></tr><tr><td style="font-weight:bold;vertical-align:top;">session_file</td><td style="vertical-align:top;">:</td><td><div>&lt;open file &#x27;/Users/cjzhou/Desktop/web2py/applications/for_sale_listing/sessions/0a3/093/127.0.0.1-1c2bc77c-93b1-46be-b816-a34f1745edf0&#x27;, mode &#x27;rb+&#x27; at 0x116f660c0&gt;</div></td></tr><tr><td style="font-weight:bold;vertical-align:top;">session_filename</td><td style="vertical-align:top;">:</td><td><div>/Users/cjzhou/Desktop/web2py/applications/for_sale_listing/sessions/127.0.0.1-1c2bc77c-93b1-46be-b816-a34f1745edf0</div></td></tr><tr><td style="font-weight:bold;vertical-align:top;">session_hash</td><td style="vertical-align:top;">:</td><td><div>511ddecf4b847f1855dba7fb206020e0</div></td></tr><tr><td style="font-weight:bold;vertical-align:top;">session_id</td><td style="vertical-align:top;">:</td><td><div>127.0.0.1-1c2bc77c-93b1-46be-b816-a34f1745edf0</div></td></tr><tr><td style="font-weight:bold;vertical-align:top;">session_id_name</td><td style="vertical-align:top;">:</td><td><div>session_id_for_sale_listing</div></td></tr><tr><td style="font-weight:bold;vertical-align:top;">session_locked</td><td style="vertical-align:top;">:</td><td><div>True</div></td></tr><tr><td style="font-weight:bold;vertical-align:top;">session_masterapp</td><td style="vertical-align:top;">:</td><td><div>for_sale_listing</div></td></tr><tr><td style="font-weight:bold;vertical-align:top;">session_new</td><td style="vertical-align:top;">:</td><td><div>False</div></td></tr><tr><td style="font-weight:bold;vertical-align:top;">session_storage_type</td><td style="vertical-align:top;">:</td><td><div>file</div></td></tr><tr><td style="font-weight:bold;vertical-align:top;">status</td><td style="vertical-align:top;">:</td><td><div>200</div></td></tr><tr><td style="font-weight:bold;vertical-align:top;">view</td><td style="vertical-align:top;">:</td><td><div>default/index.html</div></td></tr></table></div>'
tRp113
sS'locals'
p114
(dp115
S'OBJECT'
p116
S"<class 'gluon.html.OBJECT'>"
p117
sS'SQLDB'
p118
S"<class 'pydal.base.DAL'>"
p119
sg106
S"<Storage {'last_query': 'db.auth_user.id>0', '_f...b3aea', 'e32fb2cc-8217-4ff4-a6a0-447276b44cf2']}>"
p120
sS'LINK'
p121
S"<class 'gluon.html.LINK'>"
p122
sS'BR'
p123
S"<class 'gluon.html.BR'>"
p124
sS'local_import'
p125
S'<function <lambda>>'
p126
sS'OPTGROUP'
p127
S"<class 'gluon.html.OPTGROUP'>"
p128
sS'__package__'
p129
S'None'
p130
sS'PRE'
p131
S"<class 'gluon.html.PRE'>"
p132
sS'IS_INT_IN_RANGE'
p133
S"<class 'gluon.validators.IS_INT_IN_RANGE'>"
p134
sS'IS_LOWER'
p135
S"<class 'gluon.validators.IS_LOWER'>"
p136
sS'IS_STRONG'
p137
S"<class 'gluon.validators.IS_STRONG'>"
p138
sS'cache'
p139
S'<gluon.cache.Cache object>'
p140
sS'IS_IN_DB'
p141
S"<class 'gluon.validators.IS_IN_DB'>"
p142
sS'TAG'
p143
S'<gluon.html.__TAG__ object>'
p144
sS'SQLField'
p145
S"<class 'pydal.objects.Field'>"
p146
sS'BODY'
p147
S"<class 'gluon.html.BODY'>"
p148
sS'IS_DATE_IN_RANGE'
p149
S"<class 'gluon.validators.IS_DATE_IN_RANGE'>"
p150
sS'TH'
p151
S"<class 'gluon.html.TH'>"
p152
sS'URL'
p153
S'<function URL>'
p154
sS'__file__'
p155
S"'/Users/cjzhou/Desktop/web2py/applications/for_sale_listing/models/db.py'"
p156
sS'P'
S"<class 'gluon.html.P'>"
p157
sS'TFOOT'
p158
S"<class 'gluon.html.TFOOT'>"
p159
sS'XHTML'
p160
S"<class 'gluon.html.XHTML'>"
p161
sS'ON'
p162
S'True'
p163
sS'OL'
p164
S"<class 'gluon.html.OL'>"
p165
sS'TEXTAREA'
p166
S"<class 'gluon.html.TEXTAREA'>"
p167
sS'MENU'
p168
S"<class 'gluon.html.MENU'>"
p169
sS'LOAD'
p170
S'<function LOAD>'
p171
sS'CODE'
p172
S"<class 'gluon.html.CODE'>"
p173
sS'HTTP'
p174
S"<class 'gluon.http.HTTP'>"
p175
sS'HR'
p176
S"<class 'gluon.html.HR'>"
p177
sS'IS_DATETIME'
p178
S"<class 'gluon.validators.IS_DATETIME'>"
p179
sS'HEAD'
p180
S"<class 'gluon.html.HEAD'>"
p181
sS'LABEL'
p182
S"<class 'gluon.html.LABEL'>"
p183
sS'CLEANUP'
p184
S"<class 'gluon.validators.CLEANUP'>"
p185
sS'SELECT'
p186
S"<class 'gluon.html.SELECT'>"
p187
sS'CENTER'
p188
S"<class 'gluon.html.CENTER'>"
p189
sS'Auth'
p190
S"<class 'gluon.tools.Auth'>"
p191
sS'__builtins__'
p192
S"{'ArithmeticError': <type 'exceptions.ArithmeticError'>, 'AssertionError': <type 'exceptions.AssertionError'>, 'AttributeError': <type 'exceptions.AttributeError'>, 'BaseException': <type 'exceptions.BaseException'>, 'BufferError': <type 'exceptions.BufferError'>, 'BytesWarning': <type 'exceptions.BytesWarning'>, 'DeprecationWarning': <type 'exceptions.DeprecationWarning'>, 'EOFError': <type 'exceptions.EOFError'>, 'Ellipsis': Ellipsis, 'EnvironmentError': <type 'exceptions.EnvironmentError'>, ...}"
p193
sS'HTML'
p194
S"<class 'gluon.html.HTML'>"
p195
sS'SQLFORM'
p196
S"<class 'gluon.sqlhtml.SQLFORM'>"
p197
sS'EM'
p198
S"<class 'gluon.html.EM'>"
p199
sS'redirect'
p200
S'<function redirect>'
p201
sS'FIELDSET'
p202
S"<class 'gluon.html.FIELDSET'>"
p203
sS'IS_EQUAL_TO'
p204
S"<class 'gluon.validators.IS_EQUAL_TO'>"
p205
sS'embed64'
p206
S'<function embed64>'
p207
sS'IS_LIST_OF'
p208
S"<class 'gluon.validators.IS_LIST_OF'>"
p209
sS'__name__'
p210
S"'__restricted__'"
p211
sS'EMBED'
p212
S"<class 'gluon.html.EMBED'>"
p213
sS'FORM'
p214
S"<class 'gluon.html.FORM'>"
p215
sS'H2'
p216
S"<class 'gluon.html.H2'>"
p217
sS'H3'
p218
S"<class 'gluon.html.H3'>"
p219
sS'BUTTON'
p220
S"<class 'gluon.html.BUTTON'>"
p221
sS'H1'
p222
S"<class 'gluon.html.H1'>"
p223
sS'H6'
p224
S"<class 'gluon.html.H6'>"
p225
sS'H4'
p226
S"<class 'gluon.html.H4'>"
p227
sS'H5'
p228
S"<class 'gluon.html.H5'>"
p229
sS'UL'
p230
S"<class 'gluon.html.UL'>"
p231
sS'IS_UPPER'
p232
S"<class 'gluon.validators.IS_UPPER'>"
p233
sS'xmlescape'
p234
S'<function xmlescape>'
p235
sS'IS_TIME'
p236
S"<class 'gluon.validators.IS_TIME'>"
p237
sS'OPTION'
p238
S"<class 'gluon.html.OPTION'>"
p239
sS'TITLE'
p240
S"<class 'gluon.html.TITLE'>"
p241
sS'CRYPT'
p242
S"<class 'gluon.validators.CRYPT'>"
p243
sS'IS_EMPTY_OR'
p244
S"<class 'gluon.validators.IS_EMPTY_OR'>"
p245
sS'MARKMIN'
p246
S"<class 'gluon.html.MARKMIN'>"
p247
sS'INPUT'
p248
S"<class 'gluon.html.INPUT'>"
p249
sS'STRONG'
p250
S"<class 'gluon.html.STRONG'>"
p251
sS'COL'
p252
S"<class 'gluon.html.COL'>"
p253
sS'SCRIPT'
p254
S"<class 'gluon.html.SCRIPT'>"
p255
sS'TABLE'
p256
S"<class 'gluon.html.TABLE'>"
p257
sS'IS_IPV4'
p258
S"<class 'gluon.validators.IS_IPV4'>"
p259
sS'IS_LENGTH'
p260
S"<class 'gluon.validators.IS_LENGTH'>"
p261
sS'IS_IPV6'
p262
S"<class 'gluon.validators.IS_IPV6'>"
p263
sS'XML'
p264
S"<class 'gluon.html.XML'>"
p265
sS'B'
S"<class 'gluon.html.B'>"
p266
sS'IMG'
p267
S"<class 'gluon.html.IMG'>"
p268
sS'SQLTABLE'
p269
S"<class 'gluon.sqlhtml.SQLTABLE'>"
p270
sS'IS_MATCH'
p271
S"<class 'gluon.validators.IS_MATCH'>"
p272
sS'IS_ALPHANUMERIC'
p273
S"<class 'gluon.validators.IS_ALPHANUMERIC'>"
p274
sS'SPAN'
p275
S"<class 'gluon.html.SPAN'>"
p276
sS'IS_JSON'
p277
S"<class 'gluon.validators.IS_JSON'>"
p278
sS'IS_IPADDRESS'
p279
S"<class 'gluon.validators.IS_IPADDRESS'>"
p280
sS'IS_SLUG'
p281
S"<class 'gluon.validators.IS_SLUG'>"
p282
sS'BEAUTIFY'
p283
S"<class 'gluon.html.BEAUTIFY'>"
p284
sS'META'
p285
S"<class 'gluon.html.META'>"
p286
sS'IS_DATE'
p287
S"<class 'gluon.validators.IS_DATE'>"
p288
sS'IS_EMAIL'
p289
S"<class 'gluon.validators.IS_EMAIL'>"
p290
sS'IS_NOT_EMPTY'
p291
S"<class 'gluon.validators.IS_NOT_EMPTY'>"
p292
sS'IS_FLOAT_IN_RANGE'
p293
S"<class 'gluon.validators.IS_FLOAT_IN_RANGE'>"
p294
sS'TBODY'
p295
S"<class 'gluon.html.TBODY'>"
p296
sS'CAT'
p297
S"<class 'gluon.html.CAT'>"
p298
sS'Field'
p299
S"<class 'pydal.objects.Field'>"
p300
sS'IS_LIST_OF_EMAILS'
p301
S"<class 'gluon.validators.IS_LIST_OF_EMAILS'>"
p302
sS'DIV'
p303
S"<class 'gluon.html.DIV'>"
p304
sS'LEGEND'
p305
S"<class 'gluon.html.LEGEND'>"
p306
sS'COLGROUP'
p307
S"<class 'gluon.html.COLGROUP'>"
p308
sS'DAL'
p309
S"<class 'pydal.base.DAL'>"
p310
sS'ASSIGNJS'
p311
S'<function ASSIGNJS>'
p312
sS'TR'
p313
S"<class 'gluon.html.TR'>"
p314
sS'LI'
p315
S"<class 'gluon.html.LI'>"
p316
sS'IFRAME'
p317
S"<class 'gluon.html.IFRAME'>"
p318
sS'TD'
p319
S"<class 'gluon.html.TD'>"
p320
sS'IS_URL'
p321
S"<class 'gluon.validators.IS_URL'>"
p322
sS'A'
S"<class 'gluon.html.A'>"
p323
sS'STYLE'
p324
S"<class 'gluon.html.STYLE'>"
p325
sS'IS_DATETIME_IN_RANGE'
p326
S"<class 'gluon.validators.IS_DATETIME_IN_RANGE'>"
p327
sS'IS_IMAGE'
p328
S"<class 'gluon.validators.IS_IMAGE'>"
p329
sS'I'
S"<class 'gluon.html.I'>"
p330
sS'IS_NOT_IN_DB'
p331
S"<class 'gluon.validators.IS_NOT_IN_DB'>"
p332
sg112
S"<Storage {'body': <cStringIO.StringO object at 0...> at 0x115bd2c08>, 'view': 'default/index.html'}>"
p333
sS'THEAD'
p334
S"<class 'gluon.html.THEAD'>"
p335
sS'ANY_OF'
p336
S"<class 'gluon.validators.ANY_OF'>"
p337
sS'IS_NULL_OR'
p338
S"<class 'gluon.validators.IS_EMPTY_OR'>"
p339
sg56
S"<Storage {'_vars': None, 'function': 'index', 'c.../Desktop/web2py/applications/for_sale_listing/'}>"
p340
sS'IS_EXPR'
p341
S"<class 'gluon.validators.IS_EXPR'>"
p342
sS'IS_IN_SET'
p343
S"<class 'gluon.validators.IS_IN_SET'>"
p344
sS'IS_UPLOAD_FILENAME'
p345
S"<class 'gluon.validators.IS_UPLOAD_FILENAME'>"
p346
sS'IS_DECIMAL_IN_RANGE'
p347
S"<class 'gluon.validators.IS_DECIMAL_IN_RANGE'>"
p348
sS'TT'
p349
S"<class 'gluon.html.TT'>"
p350
sS'T'
S'<gluon.languages.translator object>'
p351
sssS'traceback'
p352
S'Traceback (most recent call last):\n  File "/Users/cjzhou/Desktop/web2py/gluon/restricted.py", line 227, in restricted\n    exec ccode in environment\n  File "/Users/cjzhou/Desktop/web2py/applications/for_sale_listing/models/db.py", line 3, in <module>\n    auth = Auth(db)\nNameError: name \'db\' is not defined\n'
p353
s.